c__builtin__
set
p1
((lp2
S'http://www.quanshuwang.com/book/0/175/43507.html'
p3
aS'http://www.quanshuwang.com/book/0/175/42964.html'
p4
aS'http://www.quanshuwang.com/book/0/175/42978.html'
p5
aS'http://www.quanshuwang.com/book/0/175/42658.html'
p6
aS'http://www.quanshuwang.com/book/0/175/42670.html'
p7
aS'http://www.quanshuwang.com/book/0/175/43084.html'
p8
aS'http://www.quanshuwang.com/book/0/175/43426.html'
p9
aS'http://www.quanshuwang.com/book/0/175/42942.html'
p10
aS'http://www.quanshuwang.com/book/0/175/43653.html'
p11
aS'http://www.quanshuwang.com/book/0/175/42622.html'
p12
aS'http://www.quanshuwang.com/book/0/175/43591.html'
p13
aS'http://www.quanshuwang.com/book/0/175/43075.html'
p14
aS'http://www.quanshuwang.com/book/0/175/43586.html'
p15
aS'http://www.quanshuwang.com/book/0/175/43576.html'
p16
aS'http://www.quanshuwang.com/book/0/175/43019.html'
p17
aS'http://www.quanshuwang.com/book/0/175/43295.html'
p18
aS'http://www.quanshuwang.com/book/0/175/43328.html'
p19
aS'http://www.quanshuwang.com/book/0/175/43689.html'
p20
aS'http://www.quanshuwang.com/book/0/175/42752.html'
p21
aS'http://www.quanshuwang.com/book/0/175/43449.html'
p22
aS'http://www.quanshuwang.com/book/0/175/43022.html'
p23
aS'http://www.quanshuwang.com/book/0/175/43641.html'
p24
aS'http://www.quanshuwang.com/book/0/175/42993.html'
p25
aS'http://www.quanshuwang.com/book/0/175/42768.html'
p26
aS'http://www.quanshuwang.com/book/0/175/43552.html'
p27
aS'http://www.quanshuwang.com/book/0/175/43694.html'
p28
aS'http://www.quanshuwang.com/book/0/175/42718.html'
p29
aS'http://www.quanshuwang.com/book/0/175/43081.html'
p30
aS'http://www.quanshuwang.com/book/0/175/43627.html'
p31
aS'http://www.quanshuwang.com/book/0/175/42929.html'
p32
aS'http://www.quanshuwang.com/book/0/175/42585.html'
p33
aS'http://www.quanshuwang.com/book/0/175/42714.html'
p34
aS'http://www.quanshuwang.com/book/0/175/42686.html'
p35
aS'http://www.quanshuwang.com/book/0/175/43680.html'
p36
aS'http://www.quanshuwang.com/book/0/175/43092.html'
p37
aS'http://www.quanshuwang.com/book/0/175/42961.html'
p38
aS'http://www.quanshuwang.com/book/0/175/42731.html'
p39
aS'http://www.quanshuwang.com/book/0/175/42677.html'
p40
aS'http://www.quanshuwang.com/book/0/175/43036.html'
p41
aS'http://www.quanshuwang.com/book/0/175/42957.html'
p42
aS'http://www.quanshuwang.com/book/0/175/43102.html'
p43
aS'http://www.quanshuwang.com/book/0/175/43443.html'
p44
aS'http://www.quanshuwang.com/book/0/175/43519.html'
p45
aS'http://www.quanshuwang.com/book/0/175/43356.html'
p46
aS'http://www.quanshuwang.com/book/0/175/42661.html'
p47
aS'http://www.quanshuwang.com/book/0/175/43069.html'
p48
aS'http://www.quanshuwang.com/book/0/175/43632.html'
p49
aS'http://www.quanshuwang.com/book/0/175/42890.html'
p50
aS'http://www.quanshuwang.com/book/0/175/43418.html'
p51
aS'http://www.quanshuwang.com/book/0/175/43153.html'
p52
aS'http://www.quanshuwang.com/book/0/175/42861.html'
p53
aS'http://www.quanshuwang.com/book/0/175/43137.html'
p54
aS'http://www.quanshuwang.com/book/0/175/43203.html'
p55
aS'http://www.quanshuwang.com/book/0/175/43228.html'
p56
aS'http://www.quanshuwang.com/book/0/175/42885.html'
p57
aS'http://www.quanshuwang.com/book/0/175/42642.html'
p58
aS'http://www.quanshuwang.com/book/0/175/43046.html'
p59
aS'http://www.quanshuwang.com/book/0/175/43404.html'
p60
aS'http://www.quanshuwang.com/book/0/175/43271.html'
p61
aS'http://www.quanshuwang.com/book/0/175/42645.html'
p62
aS'http://www.quanshuwang.com/book/0/175/42602.html'
p63
aS'http://www.quanshuwang.com/book/0/175/43182.html'
p64
aS'http://www.quanshuwang.com/book/0/175/43734.html'
p65
aS'http://www.quanshuwang.com/book/0/175/43198.html'
p66
aS'http://www.quanshuwang.com/book/0/175/43362.html'
p67
aS'http://www.quanshuwang.com/book/0/175/43193.html'
p68
aS'http://www.quanshuwang.com/book/0/175/43380.html'
p69
aS'http://www.quanshuwang.com/book/0/175/43173.html'
p70
aS'http://www.quanshuwang.com/book/0/175/43127.html'
p71
aS'http://www.quanshuwang.com/book/0/175/42858.html'
p72
aS'http://www.quanshuwang.com/book/0/175/43108.html'
p73
aS'http://www.quanshuwang.com/book/0/175/43237.html'
p74
aS'http://www.quanshuwang.com/book/0/175/43065.html'
p75
aS'http://www.quanshuwang.com/book/0/175/42579.html'
p76
aS'http://www.quanshuwang.com/book/0/175/42694.html'
p77
aS'http://www.quanshuwang.com/book/0/175/43610.html'
p78
aS'http://www.quanshuwang.com/book/0/175/43196.html'
p79
aS'http://www.quanshuwang.com/book/0/175/42606.html'
p80
aS'http://www.quanshuwang.com/book/0/175/43265.html'
p81
aS'http://www.quanshuwang.com/book/0/175/43059.html'
p82
aS'http://www.quanshuwang.com/book/0/175/43672.html'
p83
aS'http://www.quanshuwang.com/book/0/175/43503.html'
p84
aS'http://www.quanshuwang.com/book/0/175/42987.html'
p85
aS'http://www.quanshuwang.com/book/0/175/42775.html'
p86
aS'http://www.quanshuwang.com/book/0/175/43259.html'
p87
aS'http://www.quanshuwang.com/book/0/175/43477.html'
p88
aS'http://www.quanshuwang.com/book/0/175/43561.html'
p89
aS'http://www.quanshuwang.com/book/0/175/43284.html'
p90
aS'http://www.quanshuwang.com/book/0/175/43302.html'
p91
aS'http://www.quanshuwang.com/book/0/175/42681.html'
p92
aS'http://www.quanshuwang.com/book/0/175/43573.html'
p93
aS'http://www.quanshuwang.com/book/0/175/42556.html'
p94
aS'http://www.quanshuwang.com/book/0/175/42708.html'
p95
aS'http://www.quanshuwang.com/book/0/175/42804.html'
p96
aS'http://www.quanshuwang.com/book/0/175/43622.html'
p97
aS'http://www.quanshuwang.com/book/0/175/42597.html'
p98
aS'http://www.quanshuwang.com/book/0/175/43335.html'
p99
aS'http://www.quanshuwang.com/book/0/175/43213.html'
p100
aS'http://www.quanshuwang.com/book/0/175/43712.html'
p101
aS'http://www.quanshuwang.com/book/0/175/43665.html'
p102
aS'http://www.quanshuwang.com/book/0/175/43309.html'
p103
aS'http://www.quanshuwang.com/book/0/175/43409.html'
p104
aS'http://www.quanshuwang.com/book/0/175/42790.html'
p105
aS'http://www.quanshuwang.com/book/0/175/42562.html'
p106
aS'http://www.quanshuwang.com/book/0/175/43221.html'
p107
aS'http://www.quanshuwang.com/book/0/175/42664.html'
p108
aS'http://www.quanshuwang.com/book/0/175/42851.html'
p109
aS'http://www.quanshuwang.com/book/0/175/43655.html'
p110
aS'http://www.quanshuwang.com/book/0/175/43525.html'
p111
aS'http://www.quanshuwang.com/book/0/175/43209.html'
p112
aS'http://www.quanshuwang.com/book/0/175/42795.html'
p113
aS'http://www.quanshuwang.com/book/0/175/43438.html'
p114
aS'http://www.quanshuwang.com/book/0/175/43249.html'
p115
aS'http://www.quanshuwang.com/book/0/175/43323.html'
p116
aS'http://www.quanshuwang.com/book/0/175/43512.html'
p117
aS'http://www.quanshuwang.com/book/0/175/42744.html'
p118
aS'http://www.quanshuwang.com/book/0/175/42711.html'
p119
aS'http://www.quanshuwang.com/book/0/175/42762.html'
p120
aS'http://www.quanshuwang.com/book/0/175/43313.html'
p121
aS'http://www.quanshuwang.com/book/0/175/42845.html'
p122
aS'http://www.quanshuwang.com/book/0/175/43531.html'
p123
aS'http://www.quanshuwang.com/book/0/175/42649.html'
p124
aS'http://www.quanshuwang.com/book/0/175/43460.html'
p125
aS'http://www.quanshuwang.com/book/0/175/43455.html'
p126
aS'http://www.quanshuwang.com/book/0/175/42923.html'
p127
aS'http://www.quanshuwang.com/book/0/175/43707.html'
p128
aS'http://www.quanshuwang.com/book/0/175/43740.html'
p129
aS'http://www.quanshuwang.com/book/0/175/42953.html'
p130
aS'http://www.quanshuwang.com/book/0/175/43667.html'
p131
aS'http://www.quanshuwang.com/book/0/175/43534.html'
p132
aS'http://www.quanshuwang.com/book/0/175/42611.html'
p133
aS'http://www.quanshuwang.com/book/0/175/42575.html'
p134
aS'http://www.quanshuwang.com/book/0/175/43029.html'
p135
aS'http://www.quanshuwang.com/book/0/175/43385.html'
p136
aS'http://www.quanshuwang.com/book/0/175/42874.html'
p137
aS'http://www.quanshuwang.com/book/0/175/43605.html'
p138
aS'http://www.quanshuwang.com/book/0/175/43388.html'
p139
aS'http://www.quanshuwang.com/book/0/175/43554.html'
p140
aS'http://www.quanshuwang.com/book/0/175/42945.html'
p141
aS'http://www.quanshuwang.com/book/0/175/43482.html'
p142
aS'http://www.quanshuwang.com/book/0/175/42822.html'
p143
aS'http://www.quanshuwang.com/book/0/175/42779.html'
p144
aS'http://www.quanshuwang.com/book/0/175/43566.html'
p145
aS'http://www.quanshuwang.com/book/0/175/43289.html'
p146
aS'http://www.quanshuwang.com/book/0/175/43473.html'
p147
aS'http://www.quanshuwang.com/book/0/175/43243.html'
p148
aS'http://www.quanshuwang.com/book/0/175/43161.html'
p149
aS'http://www.quanshuwang.com/book/0/175/43187.html'
p150
aS'http://www.quanshuwang.com/book/0/175/42938.html'
p151
aS'http://www.quanshuwang.com/book/0/175/43218.html'
p152
aS'http://www.quanshuwang.com/book/0/175/43113.html'
p153
aS'http://www.quanshuwang.com/book/0/175/42933.html'
p154
aS'http://www.quanshuwang.com/book/0/175/42758.html'
p155
aS'http://www.quanshuwang.com/book/0/175/42702.html'
p156
aS'http://www.quanshuwang.com/book/0/175/43464.html'
p157
aS'http://www.quanshuwang.com/book/0/175/43581.html'
p158
aS'http://www.quanshuwang.com/book/0/175/43660.html'
p159
aS'http://www.quanshuwang.com/book/0/175/43499.html'
p160
aS'http://www.quanshuwang.com/book/0/175/43040.html'
p161
aS'http://www.quanshuwang.com/book/0/175/43366.html'
p162
aS'http://www.quanshuwang.com/book/0/175/42879.html'
p163
aS'http://www.quanshuwang.com/book/0/175/43647.html'
p164
aS'http://www.quanshuwang.com/book/0/175/42785.html'
p165
aS'http://www.quanshuwang.com/book/0/175/43004.html'
p166
aS'http://www.quanshuwang.com/book/0/175/43700.html'
p167
aS'http://www.quanshuwang.com/book/0/175/43177.html'
p168
aS'http://www.quanshuwang.com/book/0/175/43433.html'
p169
aS'http://www.quanshuwang.com/book/0/175/42816.html'
p170
atRp171
.