c__builtin__
set
p1
((lp2
S'http://www.quanshuwang.com/book/0/162/11873237.html'
p3
aS'http://www.quanshuwang.com/book/0/162/11873106.html'
p4
aS'http://www.quanshuwang.com/book/0/162/11873368.html'
p5
aS'http://www.quanshuwang.com/book/0/162/11873134.html'
p6
aS'http://www.quanshuwang.com/book/0/162/11872935.html'
p7
aS'http://www.quanshuwang.com/book/0/162/11873276.html'
p8
aS'http://www.quanshuwang.com/book/0/162/11873264.html'
p9
aS'http://www.quanshuwang.com/book/0/162/11873355.html'
p10
aS'http://www.quanshuwang.com/book/0/162/11872306.html'
p11
aS'http://www.quanshuwang.com/book/0/162/11873376.html'
p12
aS'http://www.quanshuwang.com/book/0/162/11873344.html'
p13
aS'http://www.quanshuwang.com/book/0/162/11873165.html'
p14
aS'http://www.quanshuwang.com/book/0/162/11872946.html'
p15
aS'http://www.quanshuwang.com/book/0/162/11872940.html'
p16
aS'http://www.quanshuwang.com/book/0/162/11872906.html'
p17
aS'http://www.quanshuwang.com/book/0/162/11872860.html'
p18
aS'http://www.quanshuwang.com/book/0/162/11873168.html'
p19
aS'http://www.quanshuwang.com/book/0/162/11873231.html'
p20
aS'http://www.quanshuwang.com/book/0/162/11873070.html'
p21
aS'http://www.quanshuwang.com/book/0/162/11873245.html'
p22
aS'http://www.quanshuwang.com/book/0/162/11873188.html'
p23
aS'http://www.quanshuwang.com/book/0/162/11873101.html'
p24
aS'http://www.quanshuwang.com/book/0/162/11873072.html'
p25
aS'http://www.quanshuwang.com/book/0/162/11873020.html'
p26
aS'http://www.quanshuwang.com/book/0/162/11872996.html'
p27
aS'http://www.quanshuwang.com/book/0/162/11873299.html'
p28
aS'http://www.quanshuwang.com/book/0/162/11873366.html'
p29
aS'http://www.quanshuwang.com/book/0/162/11873194.html'
p30
aS'http://www.quanshuwang.com/book/0/162/11873060.html'
p31
aS'http://www.quanshuwang.com/book/0/162/11873330.html'
p32
aS'http://www.quanshuwang.com/book/0/162/11873221.html'
p33
aS'http://www.quanshuwang.com/book/0/162/11873262.html'
p34
aS'http://www.quanshuwang.com/book/0/162/11872903.html'
p35
aS'http://www.quanshuwang.com/book/0/162/11873329.html'
p36
aS'http://www.quanshuwang.com/book/0/162/11873193.html'
p37
aS'http://www.quanshuwang.com/book/0/162/11872844.html'
p38
aS'http://www.quanshuwang.com/book/0/162/11872917.html'
p39
aS'http://www.quanshuwang.com/book/0/162/11873131.html'
p40
aS'http://www.quanshuwang.com/book/0/162/11873347.html'
p41
aS'http://www.quanshuwang.com/book/0/162/11873111.html'
p42
aS'http://www.quanshuwang.com/book/0/162/11872926.html'
p43
aS'http://www.quanshuwang.com/book/0/162/11872872.html'
p44
aS'http://www.quanshuwang.com/book/0/162/11873306.html'
p45
aS'http://www.quanshuwang.com/book/0/162/11873211.html'
p46
aS'http://www.quanshuwang.com/book/0/162/11873151.html'
p47
aS'http://www.quanshuwang.com/book/0/162/11873121.html'
p48
aS'http://www.quanshuwang.com/book/0/162/11873274.html'
p49
aS'http://www.quanshuwang.com/book/0/162/11873006.html'
p50
aS'http://www.quanshuwang.com/book/0/162/11872882.html'
p51
aS'http://www.quanshuwang.com/book/0/162/11873083.html'
p52
aS'http://www.quanshuwang.com/book/0/162/11872974.html'
p53
aS'http://www.quanshuwang.com/book/0/162/11873051.html'
p54
aS'http://www.quanshuwang.com/book/0/162/11872851.html'
p55
aS'http://www.quanshuwang.com/book/0/162/11872933.html'
p56
aS'http://www.quanshuwang.com/book/0/162/11872998.html'
p57
aS'http://www.quanshuwang.com/book/0/162/11872889.html'
p58
aS'http://www.quanshuwang.com/book/0/162/11873341.html'
p59
aS'http://www.quanshuwang.com/book/0/162/11873386.html'
p60
aS'http://www.quanshuwang.com/book/0/162/11873369.html'
p61
aS'http://www.quanshuwang.com/book/0/162/11873278.html'
p62
aS'http://www.quanshuwang.com/book/0/162/11873103.html'
p63
aS'http://www.quanshuwang.com/book/0/162/11873214.html'
p64
aS'http://www.quanshuwang.com/book/0/162/11873116.html'
p65
aS'http://www.quanshuwang.com/book/0/162/11873142.html'
p66
aS'http://www.quanshuwang.com/book/0/162/11873057.html'
p67
aS'http://www.quanshuwang.com/book/0/162/11873040.html'
p68
aS'http://www.quanshuwang.com/book/0/162/11873323.html'
p69
aS'http://www.quanshuwang.com/book/0/162/11872914.html'
p70
aS'http://www.quanshuwang.com/book/0/162/11872245.html'
p71
aS'http://www.quanshuwang.com/book/0/162/11873065.html'
p72
aS'http://www.quanshuwang.com/book/0/162/11873351.html'
p73
aS'http://www.quanshuwang.com/book/0/162/11873010.html'
p74
aS'http://www.quanshuwang.com/book/0/162/11872873.html'
p75
aS'http://www.quanshuwang.com/book/0/162/11873054.html'
p76
aS'http://www.quanshuwang.com/book/0/162/11872305.html'
p77
aS'http://www.quanshuwang.com/book/0/162/11872828.html'
p78
aS'http://www.quanshuwang.com/book/0/162/11872884.html'
p79
aS'http://www.quanshuwang.com/book/0/162/11873394.html'
p80
aS'http://www.quanshuwang.com/book/0/162/11873069.html'
p81
aS'http://www.quanshuwang.com/book/0/162/11872968.html'
p82
aS'http://www.quanshuwang.com/book/0/162/11873241.html'
p83
aS'http://www.quanshuwang.com/book/0/162/11872922.html'
p84
aS'http://www.quanshuwang.com/book/0/162/11873210.html'
p85
aS'http://www.quanshuwang.com/book/0/162/11873047.html'
p86
aS'http://www.quanshuwang.com/book/0/162/11873132.html'
p87
aS'http://www.quanshuwang.com/book/0/162/11873236.html'
p88
aS'http://www.quanshuwang.com/book/0/162/11873201.html'
p89
aS'http://www.quanshuwang.com/book/0/162/11872988.html'
p90
aS'http://www.quanshuwang.com/book/0/162/11872994.html'
p91
aS'http://www.quanshuwang.com/book/0/162/11873008.html'
p92
aS'http://www.quanshuwang.com/book/0/162/11872848.html'
p93
aS'http://www.quanshuwang.com/book/0/162/11873161.html'
p94
aS'http://www.quanshuwang.com/book/0/162/11872907.html'
p95
aS'http://www.quanshuwang.com/book/0/162/11873050.html'
p96
aS'http://www.quanshuwang.com/book/0/162/11873379.html'
p97
aS'http://www.quanshuwang.com/book/0/162/11872839.html'
p98
aS'http://www.quanshuwang.com/book/0/162/11873290.html'
p99
aS'http://www.quanshuwang.com/book/0/162/11873182.html'
p100
aS'http://www.quanshuwang.com/book/0/162/11873328.html'
p101
aS'http://www.quanshuwang.com/book/0/162/11872224.html'
p102
aS'http://www.quanshuwang.com/book/0/162/11873011.html'
p103
aS'http://www.quanshuwang.com/book/0/162/11872898.html'
p104
aS'http://www.quanshuwang.com/book/0/162/11872249.html'
p105
aS'http://www.quanshuwang.com/book/0/162/11873263.html'
p106
aS'http://www.quanshuwang.com/book/0/162/11873334.html'
p107
aS'http://www.quanshuwang.com/book/0/162/11873145.html'
p108
aS'http://www.quanshuwang.com/book/0/162/11872964.html'
p109
aS'http://www.quanshuwang.com/book/0/162/11872916.html'
p110
aS'http://www.quanshuwang.com/book/0/162/11872925.html'
p111
aS'http://www.quanshuwang.com/book/0/162/11873303.html'
p112
aS'http://www.quanshuwang.com/book/0/162/11873340.html'
p113
aS'http://www.quanshuwang.com/book/0/162/11873305.html'
p114
aS'http://www.quanshuwang.com/book/0/162/11872213.html'
p115
aS'http://www.quanshuwang.com/book/0/162/11873012.html'
p116
aS'http://www.quanshuwang.com/book/0/162/11872897.html'
p117
aS'http://www.quanshuwang.com/book/0/162/11873004.html'
p118
aS'http://www.quanshuwang.com/book/0/162/11873056.html'
p119
aS'http://www.quanshuwang.com/book/0/162/11873289.html'
p120
aS'http://www.quanshuwang.com/book/0/162/11872852.html'
p121
aS'http://www.quanshuwang.com/book/0/162/11872829.html'
p122
aS'http://www.quanshuwang.com/book/0/162/11873177.html'
p123
aS'http://www.quanshuwang.com/book/0/162/11872311.html'
p124
aS'http://www.quanshuwang.com/book/0/162/11873346.html'
p125
aS'http://www.quanshuwang.com/book/0/162/11873199.html'
p126
aS'http://www.quanshuwang.com/book/0/162/11872984.html'
p127
aS'http://www.quanshuwang.com/book/0/162/11873043.html'
p128
aS'http://www.quanshuwang.com/book/0/162/11873174.html'
p129
aS'http://www.quanshuwang.com/book/0/162/11872912.html'
p130
aS'http://www.quanshuwang.com/book/0/162/11872957.html'
p131
aS'http://www.quanshuwang.com/book/0/162/11872932.html'
p132
aS'http://www.quanshuwang.com/book/0/162/11873025.html'
p133
aS'http://www.quanshuwang.com/book/0/162/11873370.html'
p134
aS'http://www.quanshuwang.com/book/0/162/11872915.html'
p135
aS'http://www.quanshuwang.com/book/0/162/11873195.html'
p136
aS'http://www.quanshuwang.com/book/0/162/11873208.html'
p137
aS'http://www.quanshuwang.com/book/0/162/11872890.html'
p138
aS'http://www.quanshuwang.com/book/0/162/11873007.html'
p139
aS'http://www.quanshuwang.com/book/0/162/11872942.html'
p140
aS'http://www.quanshuwang.com/book/0/162/11873390.html'
p141
aS'http://www.quanshuwang.com/book/0/162/11873285.html'
p142
aS'http://www.quanshuwang.com/book/0/162/11873240.html'
p143
aS'http://www.quanshuwang.com/book/0/162/11872866.html'
p144
aS'http://www.quanshuwang.com/book/0/162/11873095.html'
p145
aS'http://www.quanshuwang.com/book/0/162/11872991.html'
p146
aS'http://www.quanshuwang.com/book/0/162/11872871.html'
p147
aS'http://www.quanshuwang.com/book/0/162/11873392.html'
p148
aS'http://www.quanshuwang.com/book/0/162/11873029.html'
p149
aS'http://www.quanshuwang.com/book/0/162/11872975.html'
p150
aS'http://www.quanshuwang.com/book/0/162/11873178.html'
p151
aS'http://www.quanshuwang.com/book/0/162/11873120.html'
p152
aS'http://www.quanshuwang.com/book/0/162/11872870.html'
p153
aS'http://www.quanshuwang.com/book/0/162/11873045.html'
p154
aS'http://www.quanshuwang.com/book/0/162/11872902.html'
p155
aS'http://www.quanshuwang.com/book/0/162/11873186.html'
p156
aS'http://www.quanshuwang.com/book/0/162/11873117.html'
p157
aS'http://www.quanshuwang.com/book/0/162/11873307.html'
p158
aS'http://www.quanshuwang.com/book/0/162/11872945.html'
p159
aS'http://www.quanshuwang.com/book/0/162/11872302.html'
p160
aS'http://www.quanshuwang.com/book/0/162/11873087.html'
p161
aS'http://www.quanshuwang.com/book/0/162/11873293.html'
p162
aS'http://www.quanshuwang.com/book/0/162/11872929.html'
p163
aS'http://www.quanshuwang.com/book/0/162/11873258.html'
p164
aS'http://www.quanshuwang.com/book/0/162/11873129.html'
p165
aS'http://www.quanshuwang.com/book/0/162/11873015.html'
p166
aS'http://www.quanshuwang.com/book/0/162/11872827.html'
p167
aS'http://www.quanshuwang.com/book/0/162/11872921.html'
p168
aS'http://www.quanshuwang.com/book/0/162/11873345.html'
p169
aS'http://www.quanshuwang.com/book/0/162/11872865.html'
p170
aS'http://www.quanshuwang.com/book/0/162/11872240.html'
p171
aS'http://www.quanshuwang.com/book/0/162/11873322.html'
p172
aS'http://www.quanshuwang.com/book/0/162/11872997.html'
p173
aS'http://www.quanshuwang.com/book/0/162/11873302.html'
p174
aS'http://www.quanshuwang.com/book/0/162/11873349.html'
p175
aS'http://www.quanshuwang.com/book/0/162/11873067.html'
p176
aS'http://www.quanshuwang.com/book/0/162/11873052.html'
p177
aS'http://www.quanshuwang.com/book/0/162/11873280.html'
p178
aS'http://www.quanshuwang.com/book/0/162/11873000.html'
p179
aS'http://www.quanshuwang.com/book/0/162/11873173.html'
p180
aS'http://www.quanshuwang.com/book/0/162/11873319.html'
p181
aS'http://www.quanshuwang.com/book/0/162/11872225.html'
p182
aS'http://www.quanshuwang.com/book/0/162/11873125.html'
p183
aS'http://www.quanshuwang.com/book/0/162/11873147.html'
p184
aS'http://www.quanshuwang.com/book/0/162/11873105.html'
p185
aS'http://www.quanshuwang.com/book/0/162/11873218.html'
p186
aS'http://www.quanshuwang.com/book/0/162/11873074.html'
p187
aS'http://www.quanshuwang.com/book/0/162/11872986.html'
p188
aS'http://www.quanshuwang.com/book/0/162/11873133.html'
p189
aS'http://www.quanshuwang.com/book/0/162/11872845.html'
p190
aS'http://www.quanshuwang.com/book/0/162/11872950.html'
p191
aS'http://www.quanshuwang.com/book/0/162/11873256.html'
p192
aS'http://www.quanshuwang.com/book/0/162/11872931.html'
p193
aS'http://www.quanshuwang.com/book/0/162/11872959.html'
p194
aS'http://www.quanshuwang.com/book/0/162/11872835.html'
p195
aS'http://www.quanshuwang.com/book/0/162/11873268.html'
p196
aS'http://www.quanshuwang.com/book/0/162/11873339.html'
p197
aS'http://www.quanshuwang.com/book/0/162/11872236.html'
p198
aS'http://www.quanshuwang.com/book/0/162/11873130.html'
p199
aS'http://www.quanshuwang.com/book/0/162/11873176.html'
p200
aS'http://www.quanshuwang.com/book/0/162/11873187.html'
p201
aS'http://www.quanshuwang.com/book/0/162/11872836.html'
p202
aS'http://www.quanshuwang.com/book/0/162/11873154.html'
p203
aS'http://www.quanshuwang.com/book/0/162/11872876.html'
p204
aS'http://www.quanshuwang.com/book/0/162/11873356.html'
p205
aS'http://www.quanshuwang.com/book/0/162/11873028.html'
p206
aS'http://www.quanshuwang.com/book/0/162/11873335.html'
p207
aS'http://www.quanshuwang.com/book/0/162/11873311.html'
p208
aS'http://www.quanshuwang.com/book/0/162/11872985.html'
p209
aS'http://www.quanshuwang.com/book/0/162/11873298.html'
p210
aS'http://www.quanshuwang.com/book/0/162/11873163.html'
p211
aS'http://www.quanshuwang.com/book/0/162/11873149.html'
p212
aS'http://www.quanshuwang.com/book/0/162/11872941.html'
p213
aS'http://www.quanshuwang.com/book/0/162/11872290.html'
p214
aS'http://www.quanshuwang.com/book/0/162/11872977.html'
p215
aS'http://www.quanshuwang.com/book/0/162/11872963.html'
p216
aS'http://www.quanshuwang.com/book/0/162/11873091.html'
p217
aS'http://www.quanshuwang.com/book/0/162/11873362.html'
p218
aS'http://www.quanshuwang.com/book/0/162/11873275.html'
p219
aS'http://www.quanshuwang.com/book/0/162/11873034.html'
p220
aS'http://www.quanshuwang.com/book/0/162/11873358.html'
p221
aS'http://www.quanshuwang.com/book/0/162/11873135.html'
p222
aS'http://www.quanshuwang.com/book/0/162/11872258.html'
p223
aS'http://www.quanshuwang.com/book/0/162/11873375.html'
p224
aS'http://www.quanshuwang.com/book/0/162/11872913.html'
p225
aS'http://www.quanshuwang.com/book/0/162/11872227.html'
p226
aS'http://www.quanshuwang.com/book/0/162/11872310.html'
p227
aS'http://www.quanshuwang.com/book/0/162/11872947.html'
p228
aS'http://www.quanshuwang.com/book/0/162/11872924.html'
p229
aS'http://www.quanshuwang.com/book/0/162/11873326.html'
p230
aS'http://www.quanshuwang.com/book/0/162/11872841.html'
p231
aS'http://www.quanshuwang.com/book/0/162/11873164.html'
p232
aS'http://www.quanshuwang.com/book/0/162/11873318.html'
p233
aS'http://www.quanshuwang.com/book/0/162/11873267.html'
p234
aS'http://www.quanshuwang.com/book/0/162/11873112.html'
p235
aS'http://www.quanshuwang.com/book/0/162/11873389.html'
p236
aS'http://www.quanshuwang.com/book/0/162/11872891.html'
p237
aS'http://www.quanshuwang.com/book/0/162/11872868.html'
p238
aS'http://www.quanshuwang.com/book/0/162/11873200.html'
p239
aS'http://www.quanshuwang.com/book/0/162/11872960.html'
p240
aS'http://www.quanshuwang.com/book/0/162/11872875.html'
p241
aS'http://www.quanshuwang.com/book/0/162/11873118.html'
p242
aS'http://www.quanshuwang.com/book/0/162/11873395.html'
p243
aS'http://www.quanshuwang.com/book/0/162/11872983.html'
p244
aS'http://www.quanshuwang.com/book/0/162/11873114.html'
p245
aS'http://www.quanshuwang.com/book/0/162/11873041.html'
p246
aS'http://www.quanshuwang.com/book/0/162/11873287.html'
p247
aS'http://www.quanshuwang.com/book/0/162/11873079.html'
p248
aS'http://www.quanshuwang.com/book/0/162/11873055.html'
p249
aS'http://www.quanshuwang.com/book/0/162/11872982.html'
p250
aS'http://www.quanshuwang.com/book/0/162/11872831.html'
p251
aS'http://www.quanshuwang.com/book/0/162/11873190.html'
p252
aS'http://www.quanshuwang.com/book/0/162/11872832.html'
p253
aS'http://www.quanshuwang.com/book/0/162/11873100.html'
p254
aS'http://www.quanshuwang.com/book/0/162/11873082.html'
p255
aS'http://www.quanshuwang.com/book/0/162/11873260.html'
p256
aS'http://www.quanshuwang.com/book/0/162/11873223.html'
p257
aS'http://www.quanshuwang.com/book/0/162/11873023.html'
p258
aS'http://www.quanshuwang.com/book/0/162/11872887.html'
p259
aS'http://www.quanshuwang.com/book/0/162/11873294.html'
p260
aS'http://www.quanshuwang.com/book/0/162/11872863.html'
p261
aS'http://www.quanshuwang.com/book/0/162/11873017.html'
p262
aS'http://www.quanshuwang.com/book/0/162/11873127.html'
p263
aS'http://www.quanshuwang.com/book/0/162/11873393.html'
p264
aS'http://www.quanshuwang.com/book/0/162/11873153.html'
p265
aS'http://www.quanshuwang.com/book/0/162/11873146.html'
p266
aS'http://www.quanshuwang.com/book/0/162/11872951.html'
p267
aS'http://www.quanshuwang.com/book/0/162/11872952.html'
p268
aS'http://www.quanshuwang.com/book/0/162/11873385.html'
p269
aS'http://www.quanshuwang.com/book/0/162/11872976.html'
p270
aS'http://www.quanshuwang.com/book/0/162/11873206.html'
p271
aS'http://www.quanshuwang.com/book/0/162/11873371.html'
p272
aS'http://www.quanshuwang.com/book/0/162/11872834.html'
p273
aS'http://www.quanshuwang.com/book/0/162/11872217.html'
p274
aS'http://www.quanshuwang.com/book/0/162/11873138.html'
p275
aS'http://www.quanshuwang.com/book/0/162/11873102.html'
p276
atRp277
.