c__builtin__
set
p1
((lp2
S'http://www.quanshuwang.com/book/5/5729/1855807.html'
p3
aS'http://www.quanshuwang.com/book/5/5729/1855439.html'
p4
aS'http://www.quanshuwang.com/book/5/5729/1855910.html'
p5
aS'http://www.quanshuwang.com/book/5/5729/1855940.html'
p6
aS'http://www.quanshuwang.com/book/5/5729/1855469.html'
p7
aS'http://www.quanshuwang.com/book/5/5729/1855856.html'
p8
aS'http://www.quanshuwang.com/book/5/5729/1855400.html'
p9
aS'http://www.quanshuwang.com/book/5/5729/1855778.html'
p10
aS'http://www.quanshuwang.com/book/5/5729/1855723.html'
p11
aS'http://www.quanshuwang.com/book/5/5729/1855563.html'
p12
aS'http://www.quanshuwang.com/book/5/5729/1855763.html'
p13
aS'http://www.quanshuwang.com/book/5/5729/1855525.html'
p14
aS'http://www.quanshuwang.com/book/5/5729/1856000.html'
p15
aS'http://www.quanshuwang.com/book/5/5729/1856019.html'
p16
aS'http://www.quanshuwang.com/book/5/5729/1855749.html'
p17
aS'http://www.quanshuwang.com/book/5/5729/1855483.html'
p18
aS'http://www.quanshuwang.com/book/5/5729/1856357.html'
p19
aS'http://www.quanshuwang.com/book/5/5729/1855636.html'
p20
aS'http://www.quanshuwang.com/book/5/5729/1856095.html'
p21
aS'http://www.quanshuwang.com/book/5/5729/1856237.html'
p22
aS'http://www.quanshuwang.com/book/5/5729/1856189.html'
p23
aS'http://www.quanshuwang.com/book/5/5729/1855426.html'
p24
aS'http://www.quanshuwang.com/book/5/5729/1855477.html'
p25
aS'http://www.quanshuwang.com/book/5/5729/1856169.html'
p26
aS'http://www.quanshuwang.com/book/5/5729/1855671.html'
p27
aS'http://www.quanshuwang.com/book/5/5729/1855677.html'
p28
aS'http://www.quanshuwang.com/book/5/5729/1855717.html'
p29
aS'http://www.quanshuwang.com/book/5/5729/1856223.html'
p30
aS'http://www.quanshuwang.com/book/5/5729/1855921.html'
p31
aS'http://www.quanshuwang.com/book/5/5729/1856297.html'
p32
aS'http://www.quanshuwang.com/book/5/5729/1855409.html'
p33
aS'http://www.quanshuwang.com/book/5/5729/1855578.html'
p34
aS'http://www.quanshuwang.com/book/5/5729/1855697.html'
p35
aS'http://www.quanshuwang.com/book/5/5729/1855774.html'
p36
aS'http://www.quanshuwang.com/book/5/5729/1855706.html'
p37
aS'http://www.quanshuwang.com/book/5/5729/1855840.html'
p38
aS'http://www.quanshuwang.com/book/5/5729/1855863.html'
p39
aS'http://www.quanshuwang.com/book/5/5729/1856203.html'
p40
aS'http://www.quanshuwang.com/book/5/5729/1855596.html'
p41
aS'http://www.quanshuwang.com/book/5/5729/1855695.html'
p42
aS'http://www.quanshuwang.com/book/5/5729/1855794.html'
p43
aS'http://www.quanshuwang.com/book/5/5729/1855730.html'
p44
aS'http://www.quanshuwang.com/book/5/5729/1855572.html'
p45
aS'http://www.quanshuwang.com/book/5/5729/1855509.html'
p46
aS'http://www.quanshuwang.com/book/5/5729/1856339.html'
p47
aS'http://www.quanshuwang.com/book/5/5729/1855944.html'
p48
aS'http://www.quanshuwang.com/book/5/5729/1855424.html'
p49
aS'http://www.quanshuwang.com/book/5/5729/1855547.html'
p50
aS'http://www.quanshuwang.com/book/5/5729/1856164.html'
p51
aS'http://www.quanshuwang.com/book/5/5729/1855611.html'
p52
aS'http://www.quanshuwang.com/book/5/5729/1855755.html'
p53
aS'http://www.quanshuwang.com/book/5/5729/1855982.html'
p54
aS'http://www.quanshuwang.com/book/5/5729/1856345.html'
p55
aS'http://www.quanshuwang.com/book/5/5729/1855390.html'
p56
aS'http://www.quanshuwang.com/book/5/5729/1855459.html'
p57
aS'http://www.quanshuwang.com/book/5/5729/1856049.html'
p58
aS'http://www.quanshuwang.com/book/5/5729/1856233.html'
p59
aS'http://www.quanshuwang.com/book/5/5729/1855820.html'
p60
aS'http://www.quanshuwang.com/book/5/5729/1855541.html'
p61
aS'http://www.quanshuwang.com/book/5/5729/1855556.html'
p62
aS'http://www.quanshuwang.com/book/5/5729/1855661.html'
p63
aS'http://www.quanshuwang.com/book/5/5729/1855494.html'
p64
aS'http://www.quanshuwang.com/book/5/5729/1856323.html'
p65
aS'http://www.quanshuwang.com/book/5/5729/1855504.html'
p66
aS'http://www.quanshuwang.com/book/5/5729/1856140.html'
p67
aS'http://www.quanshuwang.com/book/5/5729/1855828.html'
p68
aS'http://www.quanshuwang.com/book/5/5729/1856299.html'
p69
aS'http://www.quanshuwang.com/book/5/5729/1855972.html'
p70
aS'http://www.quanshuwang.com/book/5/5729/1855933.html'
p71
aS'http://www.quanshuwang.com/book/5/5729/1855664.html'
p72
aS'http://www.quanshuwang.com/book/5/5729/1856354.html'
p73
aS'http://www.quanshuwang.com/book/5/5729/1856250.html'
p74
atRp75
.