c__builtin__
set
p1
((lp2
S'http://www.quanshuwang.com/book/0/149/35486.html'
p3
aS'http://www.quanshuwang.com/book/0/149/35406.html'
p4
aS'http://www.quanshuwang.com/book/0/149/4775962.html'
p5
aS'http://www.quanshuwang.com/book/0/149/4433003.html'
p6
aS'http://www.quanshuwang.com/book/0/149/35760.html'
p7
aS'http://www.quanshuwang.com/book/0/149/35205.html'
p8
aS'http://www.quanshuwang.com/book/0/149/9793915.html'
p9
aS'http://www.quanshuwang.com/book/0/149/4904163.html'
p10
aS'http://www.quanshuwang.com/book/0/149/6920487.html'
p11
aS'http://www.quanshuwang.com/book/0/149/9793925.html'
p12
aS'http://www.quanshuwang.com/book/0/149/5043397.html'
p13
aS'http://www.quanshuwang.com/book/0/149/6825181.html'
p14
aS'http://www.quanshuwang.com/book/0/149/9804821.html'
p15
aS'http://www.quanshuwang.com/book/0/149/5834787.html'
p16
aS'http://www.quanshuwang.com/book/0/149/9828076.html'
p17
aS'http://www.quanshuwang.com/book/0/149/6440371.html'
p18
aS'http://www.quanshuwang.com/book/0/149/4653497.html'
p19
aS'http://www.quanshuwang.com/book/0/149/10181979.html'
p20
aS'http://www.quanshuwang.com/book/0/149/9830178.html'
p21
aS'http://www.quanshuwang.com/book/0/149/6967977.html'
p22
aS'http://www.quanshuwang.com/book/0/149/6079579.html'
p23
aS'http://www.quanshuwang.com/book/0/149/35548.html'
p24
aS'http://www.quanshuwang.com/book/0/149/7156103.html'
p25
aS'http://www.quanshuwang.com/book/0/149/4916709.html'
p26
aS'http://www.quanshuwang.com/book/0/149/35362.html'
p27
aS'http://www.quanshuwang.com/book/0/149/4620829.html'
p28
aS'http://www.quanshuwang.com/book/0/149/5043395.html'
p29
aS'http://www.quanshuwang.com/book/0/149/6926941.html'
p30
aS'http://www.quanshuwang.com/book/0/149/34552.html'
p31
aS'http://www.quanshuwang.com/book/0/149/9781969.html'
p32
aS'http://www.quanshuwang.com/book/0/149/5180988.html'
p33
aS'http://www.quanshuwang.com/book/0/149/6926942.html'
p34
aS'http://www.quanshuwang.com/book/0/149/35815.html'
p35
aS'http://www.quanshuwang.com/book/0/149/35677.html'
p36
aS'http://www.quanshuwang.com/book/0/149/4922308.html'
p37
aS'http://www.quanshuwang.com/book/0/149/4322988.html'
p38
aS'http://www.quanshuwang.com/book/0/149/35858.html'
p39
aS'http://www.quanshuwang.com/book/0/149/4708411.html'
p40
aS'http://www.quanshuwang.com/book/0/149/34347.html'
p41
aS'http://www.quanshuwang.com/book/0/149/34995.html'
p42
aS'http://www.quanshuwang.com/book/0/149/4944727.html'
p43
aS'http://www.quanshuwang.com/book/0/149/34339.html'
p44
aS'http://www.quanshuwang.com/book/0/149/5592904.html'
p45
aS'http://www.quanshuwang.com/book/0/149/35032.html'
p46
aS'http://www.quanshuwang.com/book/0/149/6706441.html'
p47
aS'http://www.quanshuwang.com/book/0/149/34736.html'
p48
aS'http://www.quanshuwang.com/book/0/149/6120285.html'
p49
aS'http://www.quanshuwang.com/book/0/149/4094675.html'
p50
aS'http://www.quanshuwang.com/book/0/149/5588717.html'
p51
aS'http://www.quanshuwang.com/book/0/149/10181954.html'
p52
aS'http://www.quanshuwang.com/book/0/149/4676563.html'
p53
aS'http://www.quanshuwang.com/book/0/149/4903581.html'
p54
aS'http://www.quanshuwang.com/book/0/149/4547348.html'
p55
aS'http://www.quanshuwang.com/book/0/149/6975051.html'
p56
aS'http://www.quanshuwang.com/book/0/149/9781975.html'
p57
aS'http://www.quanshuwang.com/book/0/149/34536.html'
p58
aS'http://www.quanshuwang.com/book/0/149/5683492.html'
p59
aS'http://www.quanshuwang.com/book/0/149/4748111.html'
p60
aS'http://www.quanshuwang.com/book/0/149/3329698.html'
p61
aS'http://www.quanshuwang.com/book/0/149/5602577.html'
p62
aS'http://www.quanshuwang.com/book/0/149/9806228.html'
p63
aS'http://www.quanshuwang.com/book/0/149/6074397.html'
p64
aS'http://www.quanshuwang.com/book/0/149/9781976.html'
p65
aS'http://www.quanshuwang.com/book/0/149/9818870.html'
p66
aS'http://www.quanshuwang.com/book/0/149/34349.html'
p67
aS'http://www.quanshuwang.com/book/0/149/4686293.html'
p68
aS'http://www.quanshuwang.com/book/0/149/36404.html'
p69
aS'http://www.quanshuwang.com/book/0/149/36281.html'
p70
aS'http://www.quanshuwang.com/book/0/149/6962152.html'
p71
aS'http://www.quanshuwang.com/book/0/149/4954834.html'
p72
aS'http://www.quanshuwang.com/book/0/149/4686907.html'
p73
aS'http://www.quanshuwang.com/book/0/149/4922315.html'
p74
aS'http://www.quanshuwang.com/book/0/149/34984.html'
p75
aS'http://www.quanshuwang.com/book/0/149/4656121.html'
p76
aS'http://www.quanshuwang.com/book/0/149/6727575.html'
p77
aS'http://www.quanshuwang.com/book/0/149/4583363.html'
p78
aS'http://www.quanshuwang.com/book/0/149/34613.html'
p79
aS'http://www.quanshuwang.com/book/0/149/4258618.html'
p80
aS'http://www.quanshuwang.com/book/0/149/36099.html'
p81
aS'http://www.quanshuwang.com/book/0/149/4922316.html'
p82
aS'http://www.quanshuwang.com/book/0/149/4885450.html'
p83
aS'http://www.quanshuwang.com/book/0/149/6736736.html'
p84
aS'http://www.quanshuwang.com/book/0/149/4429243.html'
p85
aS'http://www.quanshuwang.com/book/0/149/34369.html'
p86
aS'http://www.quanshuwang.com/book/0/149/4769064.html'
p87
aS'http://www.quanshuwang.com/book/0/149/10181950.html'
p88
aS'http://www.quanshuwang.com/book/0/149/34821.html'
p89
aS'http://www.quanshuwang.com/book/0/149/34354.html'
p90
aS'http://www.quanshuwang.com/book/0/149/5141481.html'
p91
aS'http://www.quanshuwang.com/book/0/149/4154573.html'
p92
aS'http://www.quanshuwang.com/book/0/149/34335.html'
p93
aS'http://www.quanshuwang.com/book/0/149/36376.html'
p94
aS'http://www.quanshuwang.com/book/0/149/5066220.html'
p95
aS'http://www.quanshuwang.com/book/0/149/6770300.html'
p96
aS'http://www.quanshuwang.com/book/0/149/35897.html'
p97
aS'http://www.quanshuwang.com/book/0/149/35705.html'
p98
aS'http://www.quanshuwang.com/book/0/149/35948.html'
p99
aS'http://www.quanshuwang.com/book/0/149/34834.html'
p100
aS'http://www.quanshuwang.com/book/0/149/3747668.html'
p101
aS'http://www.quanshuwang.com/book/0/149/34892.html'
p102
aS'http://www.quanshuwang.com/book/0/149/9781971.html'
p103
aS'http://www.quanshuwang.com/book/0/149/35886.html'
p104
aS'http://www.quanshuwang.com/book/0/149/34972.html'
p105
aS'http://www.quanshuwang.com/book/0/149/35339.html'
p106
aS'http://www.quanshuwang.com/book/0/149/36285.html'
p107
aS'http://www.quanshuwang.com/book/0/149/4239648.html'
p108
aS'http://www.quanshuwang.com/book/0/149/4720861.html'
p109
aS'http://www.quanshuwang.com/book/0/149/5043392.html'
p110
aS'http://www.quanshuwang.com/book/0/149/35308.html'
p111
aS'http://www.quanshuwang.com/book/0/149/5043398.html'
p112
aS'http://www.quanshuwang.com/book/0/149/4718928.html'
p113
aS'http://www.quanshuwang.com/book/0/149/35620.html'
p114
aS'http://www.quanshuwang.com/book/0/149/3136333.html'
p115
aS'http://www.quanshuwang.com/book/0/149/5634978.html'
p116
aS'http://www.quanshuwang.com/book/0/149/4922309.html'
p117
aS'http://www.quanshuwang.com/book/0/149/35688.html'
p118
aS'http://www.quanshuwang.com/book/0/149/4903657.html'
p119
aS'http://www.quanshuwang.com/book/0/149/9781974.html'
p120
aS'http://www.quanshuwang.com/book/0/149/4433299.html'
p121
aS'http://www.quanshuwang.com/book/0/149/4908356.html'
p122
aS'http://www.quanshuwang.com/book/0/149/6940283.html'
p123
aS'http://www.quanshuwang.com/book/0/149/36303.html'
p124
aS'http://www.quanshuwang.com/book/0/149/6884591.html'
p125
aS'http://www.quanshuwang.com/book/0/149/35557.html'
p126
aS'http://www.quanshuwang.com/book/0/149/4209808.html'
p127
aS'http://www.quanshuwang.com/book/0/149/3420791.html'
p128
aS'http://www.quanshuwang.com/book/0/149/35092.html'
p129
aS'http://www.quanshuwang.com/book/0/149/7156102.html'
p130
aS'http://www.quanshuwang.com/book/0/149/35123.html'
p131
aS'http://www.quanshuwang.com/book/0/149/3086211.html'
p132
aS'http://www.quanshuwang.com/book/0/149/35229.html'
p133
aS'http://www.quanshuwang.com/book/0/149/10181961.html'
p134
aS'http://www.quanshuwang.com/book/0/149/36071.html'
p135
aS'http://www.quanshuwang.com/book/0/149/36324.html'
p136
aS'http://www.quanshuwang.com/book/0/149/4741872.html'
p137
aS'http://www.quanshuwang.com/book/0/149/34473.html'
p138
aS'http://www.quanshuwang.com/book/0/149/4136876.html'
p139
aS'http://www.quanshuwang.com/book/0/149/35893.html'
p140
aS'http://www.quanshuwang.com/book/0/149/9809356.html'
p141
aS'http://www.quanshuwang.com/book/0/149/4533410.html'
p142
aS'http://www.quanshuwang.com/book/0/149/35837.html'
p143
aS'http://www.quanshuwang.com/book/0/149/6074396.html'
p144
aS'http://www.quanshuwang.com/book/0/149/5683493.html'
p145
aS'http://www.quanshuwang.com/book/0/149/34714.html'
p146
aS'http://www.quanshuwang.com/book/0/149/34838.html'
p147
aS'http://www.quanshuwang.com/book/0/149/9793919.html'
p148
aS'http://www.quanshuwang.com/book/0/149/7015504.html'
p149
aS'http://www.quanshuwang.com/book/0/149/35290.html'
p150
aS'http://www.quanshuwang.com/book/0/149/35469.html'
p151
aS'http://www.quanshuwang.com/book/0/149/4650678.html'
p152
aS'http://www.quanshuwang.com/book/0/149/4095793.html'
p153
aS'http://www.quanshuwang.com/book/0/149/4944419.html'
p154
aS'http://www.quanshuwang.com/book/0/149/36040.html'
p155
aS'http://www.quanshuwang.com/book/0/149/4460145.html'
p156
aS'http://www.quanshuwang.com/book/0/149/34464.html'
p157
aS'http://www.quanshuwang.com/book/0/149/5141472.html'
p158
aS'http://www.quanshuwang.com/book/0/149/36151.html'
p159
aS'http://www.quanshuwang.com/book/0/149/35742.html'
p160
aS'http://www.quanshuwang.com/book/0/149/6890203.html'
p161
aS'http://www.quanshuwang.com/book/0/149/9781972.html'
p162
aS'http://www.quanshuwang.com/book/0/149/4746155.html'
p163
aS'http://www.quanshuwang.com/book/0/149/34406.html'
p164
aS'http://www.quanshuwang.com/book/0/149/34928.html'
p165
aS'http://www.quanshuwang.com/book/0/149/4668265.html'
p166
aS'http://www.quanshuwang.com/book/0/149/36354.html'
p167
aS'http://www.quanshuwang.com/book/0/149/10217176.html'
p168
aS'http://www.quanshuwang.com/book/0/149/10181969.html'
p169
aS'http://www.quanshuwang.com/book/0/149/4333408.html'
p170
aS'http://www.quanshuwang.com/book/0/149/4721262.html'
p171
aS'http://www.quanshuwang.com/book/0/149/4278509.html'
p172
aS'http://www.quanshuwang.com/book/0/149/34845.html'
p173
aS'http://www.quanshuwang.com/book/0/149/4922307.html'
p174
aS'http://www.quanshuwang.com/book/0/149/4072569.html'
p175
aS'http://www.quanshuwang.com/book/0/149/35417.html'
p176
aS'http://www.quanshuwang.com/book/0/149/4283667.html'
p177
aS'http://www.quanshuwang.com/book/0/149/3559774.html'
p178
aS'http://www.quanshuwang.com/book/0/149/34456.html'
p179
aS'http://www.quanshuwang.com/book/0/149/35233.html'
p180
aS'http://www.quanshuwang.com/book/0/149/4822465.html'
p181
aS'http://www.quanshuwang.com/book/0/149/35280.html'
p182
aS'http://www.quanshuwang.com/book/0/149/4636205.html'
p183
aS'http://www.quanshuwang.com/book/0/149/4578723.html'
p184
aS'http://www.quanshuwang.com/book/0/149/6812488.html'
p185
aS'http://www.quanshuwang.com/book/0/149/34382.html'
p186
aS'http://www.quanshuwang.com/book/0/149/4730889.html'
p187
aS'http://www.quanshuwang.com/book/0/149/4651224.html'
p188
aS'http://www.quanshuwang.com/book/0/149/4528640.html'
p189
aS'http://www.quanshuwang.com/book/0/149/35323.html'
p190
aS'http://www.quanshuwang.com/book/0/149/6555969.html'
p191
aS'http://www.quanshuwang.com/book/0/149/34746.html'
p192
aS'http://www.quanshuwang.com/book/0/149/6375880.html'
p193
aS'http://www.quanshuwang.com/book/0/149/34946.html'
p194
aS'http://www.quanshuwang.com/book/0/149/4143112.html'
p195
aS'http://www.quanshuwang.com/book/0/149/4365571.html'
p196
aS'http://www.quanshuwang.com/book/0/149/9793921.html'
p197
aS'http://www.quanshuwang.com/book/0/149/4568569.html'
p198
aS'http://www.quanshuwang.com/book/0/149/9793917.html'
p199
aS'http://www.quanshuwang.com/book/0/149/34850.html'
p200
aS'http://www.quanshuwang.com/book/0/149/35644.html'
p201
aS'http://www.quanshuwang.com/book/0/149/9781968.html'
p202
aS'http://www.quanshuwang.com/book/0/149/4944336.html'
p203
aS'http://www.quanshuwang.com/book/0/149/4930088.html'
p204
aS'http://www.quanshuwang.com/book/0/149/4932907.html'
p205
aS'http://www.quanshuwang.com/book/0/149/3754083.html'
p206
aS'http://www.quanshuwang.com/book/0/149/35268.html'
p207
aS'http://www.quanshuwang.com/book/0/149/6440370.html'
p208
aS'http://www.quanshuwang.com/book/0/149/34796.html'
p209
aS'http://www.quanshuwang.com/book/0/149/4922305.html'
p210
aS'http://www.quanshuwang.com/book/0/149/6437532.html'
p211
aS'http://www.quanshuwang.com/book/0/149/4664207.html'
p212
aS'http://www.quanshuwang.com/book/0/149/4515908.html'
p213
aS'http://www.quanshuwang.com/book/0/149/34385.html'
p214
aS'http://www.quanshuwang.com/book/0/149/36416.html'
p215
aS'http://www.quanshuwang.com/book/0/149/7012588.html'
p216
aS'http://www.quanshuwang.com/book/0/149/4703563.html'
p217
aS'http://www.quanshuwang.com/book/0/149/36220.html'
p218
aS'http://www.quanshuwang.com/book/0/149/4822503.html'
p219
aS'http://www.quanshuwang.com/book/0/149/4522303.html'
p220
aS'http://www.quanshuwang.com/book/0/149/6943321.html'
p221
aS'http://www.quanshuwang.com/book/0/149/4538125.html'
p222
aS'http://www.quanshuwang.com/book/0/149/10181960.html'
p223
aS'http://www.quanshuwang.com/book/0/149/4668168.html'
p224
aS'http://www.quanshuwang.com/book/0/149/9781979.html'
p225
aS'http://www.quanshuwang.com/book/0/149/1471087.html'
p226
aS'http://www.quanshuwang.com/book/0/149/10181968.html'
p227
aS'http://www.quanshuwang.com/book/0/149/35437.html'
p228
aS'http://www.quanshuwang.com/book/0/149/34623.html'
p229
aS'http://www.quanshuwang.com/book/0/149/4491130.html'
p230
aS'http://www.quanshuwang.com/book/0/149/4863735.html'
p231
aS'http://www.quanshuwang.com/book/0/149/4879824.html'
p232
aS'http://www.quanshuwang.com/book/0/149/6812486.html'
p233
aS'http://www.quanshuwang.com/book/0/149/9818868.html'
p234
aS'http://www.quanshuwang.com/book/0/149/35412.html'
p235
aS'http://www.quanshuwang.com/book/0/149/4144177.html'
p236
aS'http://www.quanshuwang.com/book/0/149/34452.html'
p237
aS'http://www.quanshuwang.com/book/0/149/3021582.html'
p238
aS'http://www.quanshuwang.com/book/0/149/4708416.html'
p239
aS'http://www.quanshuwang.com/book/0/149/5066288.html'
p240
aS'http://www.quanshuwang.com/book/0/149/5066238.html'
p241
aS'http://www.quanshuwang.com/book/0/149/3021583.html'
p242
aS'http://www.quanshuwang.com/book/0/149/4311343.html'
p243
aS'http://www.quanshuwang.com/book/0/149/5141475.html'
p244
aS'http://www.quanshuwang.com/book/0/149/4414331.html'
p245
aS'http://www.quanshuwang.com/book/0/149/4207719.html'
p246
aS'http://www.quanshuwang.com/book/0/149/6865956.html'
p247
aS'http://www.quanshuwang.com/book/0/149/6074395.html'
p248
aS'http://www.quanshuwang.com/book/0/149/36294.html'
p249
aS'http://www.quanshuwang.com/book/0/149/4296367.html'
p250
aS'http://www.quanshuwang.com/book/0/149/4646580.html'
p251
aS'http://www.quanshuwang.com/book/0/149/36055.html'
p252
aS'http://www.quanshuwang.com/book/0/149/34481.html'
p253
aS'http://www.quanshuwang.com/book/0/149/36017.html'
p254
aS'http://www.quanshuwang.com/book/0/149/5683495.html'
p255
aS'http://www.quanshuwang.com/book/0/149/4070079.html'
p256
aS'http://www.quanshuwang.com/book/0/149/4681700.html'
p257
aS'http://www.quanshuwang.com/book/0/149/10181973.html'
p258
aS'http://www.quanshuwang.com/book/0/149/4922317.html'
p259
aS'http://www.quanshuwang.com/book/0/149/35107.html'
p260
aS'http://www.quanshuwang.com/book/0/149/6033519.html'
p261
aS'http://www.quanshuwang.com/book/0/149/4169952.html'
p262
aS'http://www.quanshuwang.com/book/0/149/36102.html'
p263
aS'http://www.quanshuwang.com/book/0/149/3315191.html'
p264
aS'http://www.quanshuwang.com/book/0/149/35178.html'
p265
aS'http://www.quanshuwang.com/book/0/149/3735274.html'
p266
aS'http://www.quanshuwang.com/book/0/149/34525.html'
p267
aS'http://www.quanshuwang.com/book/0/149/36116.html'
p268
aS'http://www.quanshuwang.com/book/0/149/35963.html'
p269
aS'http://www.quanshuwang.com/book/0/149/34916.html'
p270
aS'http://www.quanshuwang.com/book/0/149/4071668.html'
p271
aS'http://www.quanshuwang.com/book/0/149/34366.html'
p272
aS'http://www.quanshuwang.com/book/0/149/6226056.html'
p273
aS'http://www.quanshuwang.com/book/0/149/35239.html'
p274
aS'http://www.quanshuwang.com/book/0/149/10181990.html'
p275
aS'http://www.quanshuwang.com/book/0/149/4945111.html'
p276
aS'http://www.quanshuwang.com/book/0/149/35523.html'
p277
aS'http://www.quanshuwang.com/book/0/149/4894637.html'
p278
aS'http://www.quanshuwang.com/book/0/149/6903846.html'
p279
aS'http://www.quanshuwang.com/book/0/149/35594.html'
p280
aS'http://www.quanshuwang.com/book/0/149/35700.html'
p281
aS'http://www.quanshuwang.com/book/0/149/6668420.html'
p282
aS'http://www.quanshuwang.com/book/0/149/36129.html'
p283
aS'http://www.quanshuwang.com/book/0/149/4450844.html'
p284
aS'http://www.quanshuwang.com/book/0/149/4260520.html'
p285
aS'http://www.quanshuwang.com/book/0/149/4617735.html'
p286
aS'http://www.quanshuwang.com/book/0/149/35183.html'
p287
aS'http://www.quanshuwang.com/book/0/149/6790108.html'
p288
aS'http://www.quanshuwang.com/book/0/149/9781961.html'
p289
aS'http://www.quanshuwang.com/book/0/149/6865642.html'
p290
aS'http://www.quanshuwang.com/book/0/149/6038703.html'
p291
aS'http://www.quanshuwang.com/book/0/149/4369088.html'
p292
aS'http://www.quanshuwang.com/book/0/149/4894631.html'
p293
aS'http://www.quanshuwang.com/book/0/149/6792882.html'
p294
aS'http://www.quanshuwang.com/book/0/149/4708417.html'
p295
aS'http://www.quanshuwang.com/book/0/149/6432576.html'
p296
aS'http://www.quanshuwang.com/book/0/149/9793923.html'
p297
aS'http://www.quanshuwang.com/book/0/149/5066174.html'
p298
aS'http://www.quanshuwang.com/book/0/149/6608689.html'
p299
aS'http://www.quanshuwang.com/book/0/149/4574376.html'
p300
aS'http://www.quanshuwang.com/book/0/149/9832052.html'
p301
aS'http://www.quanshuwang.com/book/0/149/4944766.html'
p302
aS'http://www.quanshuwang.com/book/0/149/34412.html'
p303
aS'http://www.quanshuwang.com/book/0/149/35482.html'
p304
aS'http://www.quanshuwang.com/book/0/149/35875.html'
p305
aS'http://www.quanshuwang.com/book/0/149/36047.html'
p306
aS'http://www.quanshuwang.com/book/0/149/34960.html'
p307
aS'http://www.quanshuwang.com/book/0/149/6778277.html'
p308
aS'http://www.quanshuwang.com/book/0/149/4324805.html'
p309
aS'http://www.quanshuwang.com/book/0/149/36008.html'
p310
aS'http://www.quanshuwang.com/book/0/149/34397.html'
p311
aS'http://www.quanshuwang.com/book/0/149/34912.html'
p312
aS'http://www.quanshuwang.com/book/0/149/4745101.html'
p313
aS'http://www.quanshuwang.com/book/0/149/9822333.html'
p314
aS'http://www.quanshuwang.com/book/0/149/34503.html'
p315
aS'http://www.quanshuwang.com/book/0/149/35314.html'
p316
aS'http://www.quanshuwang.com/book/0/149/4031858.html'
p317
aS'http://www.quanshuwang.com/book/0/149/9804175.html'
p318
aS'http://www.quanshuwang.com/book/0/149/34811.html'
p319
aS'http://www.quanshuwang.com/book/0/149/5588342.html'
p320
aS'http://www.quanshuwang.com/book/0/149/4587068.html'
p321
aS'http://www.quanshuwang.com/book/0/149/36209.html'
p322
aS'http://www.quanshuwang.com/book/0/149/34671.html'
p323
aS'http://www.quanshuwang.com/book/0/149/10181965.html'
p324
aS'http://www.quanshuwang.com/book/0/149/4939930.html'
p325
aS'http://www.quanshuwang.com/book/0/149/4073652.html'
p326
aS'http://www.quanshuwang.com/book/0/149/6074399.html'
p327
aS'http://www.quanshuwang.com/book/0/149/4302259.html'
p328
aS'http://www.quanshuwang.com/book/0/149/35025.html'
p329
aS'http://www.quanshuwang.com/book/0/149/6946301.html'
p330
aS'http://www.quanshuwang.com/book/0/149/35932.html'
p331
aS'http://www.quanshuwang.com/book/0/149/34429.html'
p332
aS'http://www.quanshuwang.com/book/0/149/34909.html'
p333
aS'http://www.quanshuwang.com/book/0/149/4587842.html'
p334
aS'http://www.quanshuwang.com/book/0/149/34674.html'
p335
aS'http://www.quanshuwang.com/book/0/149/10181989.html'
p336
aS'http://www.quanshuwang.com/book/0/149/35191.html'
p337
aS'http://www.quanshuwang.com/book/0/149/6583835.html'
p338
aS'http://www.quanshuwang.com/book/0/149/5141477.html'
p339
aS'http://www.quanshuwang.com/book/0/149/6880242.html'
p340
aS'http://www.quanshuwang.com/book/0/149/35609.html'
p341
aS'http://www.quanshuwang.com/book/0/149/4863672.html'
p342
aS'http://www.quanshuwang.com/book/0/149/6094293.html'
p343
aS'http://www.quanshuwang.com/book/0/149/35140.html'
p344
aS'http://www.quanshuwang.com/book/0/149/4708413.html'
p345
aS'http://www.quanshuwang.com/book/0/149/6901760.html'
p346
aS'http://www.quanshuwang.com/book/0/149/35710.html'
p347
aS'http://www.quanshuwang.com/book/0/149/4908846.html'
p348
aS'http://www.quanshuwang.com/book/0/149/34885.html'
p349
aS'http://www.quanshuwang.com/book/0/149/34640.html'
p350
aS'http://www.quanshuwang.com/book/0/149/9781944.html'
p351
aS'http://www.quanshuwang.com/book/0/149/4587910.html'
p352
aS'http://www.quanshuwang.com/book/0/149/6900817.html'
p353
aS'http://www.quanshuwang.com/book/0/149/6129195.html'
p354
aS'http://www.quanshuwang.com/book/0/149/6777736.html'
p355
aS'http://www.quanshuwang.com/book/0/149/4692805.html'
p356
aS'http://www.quanshuwang.com/book/0/149/3747677.html'
p357
aS'http://www.quanshuwang.com/book/0/149/6111038.html'
p358
aS'http://www.quanshuwang.com/book/0/149/4943947.html'
p359
aS'http://www.quanshuwang.com/book/0/149/4730890.html'
p360
aS'http://www.quanshuwang.com/book/0/149/35128.html'
p361
aS'http://www.quanshuwang.com/book/0/149/9781953.html'
p362
aS'http://www.quanshuwang.com/book/0/149/9781947.html'
p363
aS'http://www.quanshuwang.com/book/0/149/4591089.html'
p364
aS'http://www.quanshuwang.com/book/0/149/10181957.html'
p365
aS'http://www.quanshuwang.com/book/0/149/4954835.html'
p366
aS'http://www.quanshuwang.com/book/0/149/4947145.html'
p367
aS'http://www.quanshuwang.com/book/0/149/9793931.html'
p368
aS'http://www.quanshuwang.com/book/0/149/6885328.html'
p369
aS'http://www.quanshuwang.com/book/0/149/10181975.html'
p370
aS'http://www.quanshuwang.com/book/0/149/4501944.html'
p371
aS'http://www.quanshuwang.com/book/0/149/9818869.html'
p372
aS'http://www.quanshuwang.com/book/0/149/36232.html'
p373
aS'http://www.quanshuwang.com/book/0/149/4270197.html'
p374
aS'http://www.quanshuwang.com/book/0/149/4474011.html'
p375
aS'http://www.quanshuwang.com/book/0/149/4454513.html'
p376
aS'http://www.quanshuwang.com/book/0/149/5141483.html'
p377
aS'http://www.quanshuwang.com/book/0/149/4147557.html'
p378
aS'http://www.quanshuwang.com/book/0/149/4742338.html'
p379
aS'http://www.quanshuwang.com/book/0/149/10181944.html'
p380
aS'http://www.quanshuwang.com/book/0/149/34567.html'
p381
aS'http://www.quanshuwang.com/book/0/149/6693708.html'
p382
aS'http://www.quanshuwang.com/book/0/149/9781950.html'
p383
aS'http://www.quanshuwang.com/book/0/149/35603.html'
p384
aS'http://www.quanshuwang.com/book/0/149/35937.html'
p385
aS'http://www.quanshuwang.com/book/0/149/4694564.html'
p386
aS'http://www.quanshuwang.com/book/0/149/34572.html'
p387
aS'http://www.quanshuwang.com/book/0/149/9781965.html'
p388
aS'http://www.quanshuwang.com/book/0/149/10181948.html'
p389
aS'http://www.quanshuwang.com/book/0/149/34344.html'
p390
aS'http://www.quanshuwang.com/book/0/149/6880243.html'
p391
aS'http://www.quanshuwang.com/book/0/149/5141479.html'
p392
aS'http://www.quanshuwang.com/book/0/149/5610319.html'
p393
aS'http://www.quanshuwang.com/book/0/149/4588472.html'
p394
aS'http://www.quanshuwang.com/book/0/149/9793918.html'
p395
aS'http://www.quanshuwang.com/book/0/149/35110.html'
p396
aS'http://www.quanshuwang.com/book/0/149/5043389.html'
p397
aS'http://www.quanshuwang.com/book/0/149/6074402.html'
p398
aS'http://www.quanshuwang.com/book/0/149/9820571.html'
p399
aS'http://www.quanshuwang.com/book/0/149/5066152.html'
p400
aS'http://www.quanshuwang.com/book/0/149/35654.html'
p401
aS'http://www.quanshuwang.com/book/0/149/3315194.html'
p402
aS'http://www.quanshuwang.com/book/0/149/9781962.html'
p403
aS'http://www.quanshuwang.com/book/0/149/4953293.html'
p404
aS'http://www.quanshuwang.com/book/0/149/4922306.html'
p405
aS'http://www.quanshuwang.com/book/0/149/6448618.html'
p406
aS'http://www.quanshuwang.com/book/0/149/6867251.html'
p407
aS'http://www.quanshuwang.com/book/0/149/10181953.html'
p408
aS'http://www.quanshuwang.com/book/0/149/4487876.html'
p409
aS'http://www.quanshuwang.com/book/0/149/10181974.html'
p410
aS'http://www.quanshuwang.com/book/0/149/6528684.html'
p411
aS'http://www.quanshuwang.com/book/0/149/5660962.html'
p412
aS'http://www.quanshuwang.com/book/0/149/4231757.html'
p413
aS'http://www.quanshuwang.com/book/0/149/35348.html'
p414
aS'http://www.quanshuwang.com/book/0/149/6711055.html'
p415
aS'http://www.quanshuwang.com/book/0/149/34334.html'
p416
aS'http://www.quanshuwang.com/book/0/149/6673511.html'
p417
aS'http://www.quanshuwang.com/book/0/149/3747685.html'
p418
aS'http://www.quanshuwang.com/book/0/149/6858343.html'
p419
aS'http://www.quanshuwang.com/book/0/149/6079580.html'
p420
aS'http://www.quanshuwang.com/book/0/149/4342285.html'
p421
aS'http://www.quanshuwang.com/book/0/149/6747881.html'
p422
aS'http://www.quanshuwang.com/book/0/149/34952.html'
p423
aS'http://www.quanshuwang.com/book/0/149/4686718.html'
p424
aS'http://www.quanshuwang.com/book/0/149/35390.html'
p425
aS'http://www.quanshuwang.com/book/0/149/4425837.html'
p426
aS'http://www.quanshuwang.com/book/0/149/35629.html'
p427
aS'http://www.quanshuwang.com/book/0/149/5838389.html'
p428
aS'http://www.quanshuwang.com/book/0/149/4288335.html'
p429
aS'http://www.quanshuwang.com/book/0/149/10181947.html'
p430
aS'http://www.quanshuwang.com/book/0/149/6419745.html'
p431
aS'http://www.quanshuwang.com/book/0/149/5043391.html'
p432
aS'http://www.quanshuwang.com/book/0/149/4696700.html'
p433
aS'http://www.quanshuwang.com/book/0/149/4664074.html'
p434
aS'http://www.quanshuwang.com/book/0/149/34990.html'
p435
aS'http://www.quanshuwang.com/book/0/149/6894539.html'
p436
aS'http://www.quanshuwang.com/book/0/149/3397388.html'
p437
aS'http://www.quanshuwang.com/book/0/149/4924395.html'
p438
aS'http://www.quanshuwang.com/book/0/149/4589382.html'
p439
aS'http://www.quanshuwang.com/book/0/149/4663261.html'
p440
aS'http://www.quanshuwang.com/book/0/149/5646393.html'
p441
aS'http://www.quanshuwang.com/book/0/149/4086674.html'
p442
aS'http://www.quanshuwang.com/book/0/149/6818821.html'
p443
aS'http://www.quanshuwang.com/book/0/149/4939831.html'
p444
aS'http://www.quanshuwang.com/book/0/149/36203.html'
p445
aS'http://www.quanshuwang.com/book/0/149/4608632.html'
p446
aS'http://www.quanshuwang.com/book/0/149/34699.html'
p447
aS'http://www.quanshuwang.com/book/0/149/5066298.html'
p448
aS'http://www.quanshuwang.com/book/0/149/5141474.html'
p449
aS'http://www.quanshuwang.com/book/0/149/3315195.html'
p450
aS'http://www.quanshuwang.com/book/0/149/4945110.html'
p451
aS'http://www.quanshuwang.com/book/0/149/6074394.html'
p452
aS'http://www.quanshuwang.com/book/0/149/4193672.html'
p453
aS'http://www.quanshuwang.com/book/0/149/7013396.html'
p454
aS'http://www.quanshuwang.com/book/0/149/3402694.html'
p455
aS'http://www.quanshuwang.com/book/0/149/3747669.html'
p456
aS'http://www.quanshuwang.com/book/0/149/35186.html'
p457
aS'http://www.quanshuwang.com/book/0/149/34749.html'
p458
aS'http://www.quanshuwang.com/book/0/149/35583.html'
p459
aS'http://www.quanshuwang.com/book/0/149/34732.html'
p460
aS'http://www.quanshuwang.com/book/0/149/35132.html'
p461
aS'http://www.quanshuwang.com/book/0/149/10181956.html'
p462
aS'http://www.quanshuwang.com/book/0/149/6120284.html'
p463
aS'http://www.quanshuwang.com/book/0/149/7156104.html'
p464
aS'http://www.quanshuwang.com/book/0/149/6686288.html'
p465
aS'http://www.quanshuwang.com/book/0/149/6812487.html'
p466
aS'http://www.quanshuwang.com/book/0/149/4681703.html'
p467
aS'http://www.quanshuwang.com/book/0/149/9800587.html'
p468
aS'http://www.quanshuwang.com/book/0/149/6107251.html'
p469
aS'http://www.quanshuwang.com/book/0/149/9793924.html'
p470
aS'http://www.quanshuwang.com/book/0/149/5066263.html'
p471
aS'http://www.quanshuwang.com/book/0/149/4692807.html'
p472
aS'http://www.quanshuwang.com/book/0/149/6931316.html'
p473
aS'http://www.quanshuwang.com/book/0/149/4904162.html'
p474
aS'http://www.quanshuwang.com/book/0/149/34979.html'
p475
aS'http://www.quanshuwang.com/book/0/149/4351688.html'
p476
aS'http://www.quanshuwang.com/book/0/149/4938462.html'
p477
aS'http://www.quanshuwang.com/book/0/149/35079.html'
p478
aS'http://www.quanshuwang.com/book/0/149/4703346.html'
p479
aS'http://www.quanshuwang.com/book/0/149/6036494.html'
p480
aS'http://www.quanshuwang.com/book/0/149/34649.html'
p481
aS'http://www.quanshuwang.com/book/0/149/34599.html'
p482
aS'http://www.quanshuwang.com/book/0/149/4742981.html'
p483
aS'http://www.quanshuwang.com/book/0/149/4504898.html'
p484
aS'http://www.quanshuwang.com/book/0/149/34741.html'
p485
aS'http://www.quanshuwang.com/book/0/149/6050179.html'
p486
aS'http://www.quanshuwang.com/book/0/149/5043401.html'
p487
aS'http://www.quanshuwang.com/book/0/149/35451.html'
p488
aS'http://www.quanshuwang.com/book/0/149/34446.html'
p489
aS'http://www.quanshuwang.com/book/0/149/6457069.html'
p490
aS'http://www.quanshuwang.com/book/0/149/34790.html'
p491
aS'http://www.quanshuwang.com/book/0/149/4730085.html'
p492
aS'http://www.quanshuwang.com/book/0/149/5043399.html'
p493
aS'http://www.quanshuwang.com/book/0/149/35907.html'
p494
aS'http://www.quanshuwang.com/book/0/149/35830.html'
p495
aS'http://www.quanshuwang.com/book/0/149/5683494.html'
p496
aS'http://www.quanshuwang.com/book/0/149/35056.html'
p497
aS'http://www.quanshuwang.com/book/0/149/3486744.html'
p498
aS'http://www.quanshuwang.com/book/0/149/5066297.html'
p499
aS'http://www.quanshuwang.com/book/0/149/3813929.html'
p500
aS'http://www.quanshuwang.com/book/0/149/6074401.html'
p501
aS'http://www.quanshuwang.com/book/0/149/9793928.html'
p502
aS'http://www.quanshuwang.com/book/0/149/35989.html'
p503
aS'http://www.quanshuwang.com/book/0/149/4457719.html'
p504
aS'http://www.quanshuwang.com/book/0/149/10181976.html'
p505
aS'http://www.quanshuwang.com/book/0/149/34655.html'
p506
aS'http://www.quanshuwang.com/book/0/149/4479541.html'
p507
aS'http://www.quanshuwang.com/book/0/149/34435.html'
p508
aS'http://www.quanshuwang.com/book/0/149/34477.html'
p509
aS'http://www.quanshuwang.com/book/0/149/4286169.html'
p510
aS'http://www.quanshuwang.com/book/0/149/10181964.html'
p511
aS'http://www.quanshuwang.com/book/0/149/34863.html'
p512
aS'http://www.quanshuwang.com/book/0/149/35833.html'
p513
aS'http://www.quanshuwang.com/book/0/149/5592903.html'
p514
aS'http://www.quanshuwang.com/book/0/149/34803.html'
p515
aS'http://www.quanshuwang.com/book/0/149/35971.html'
p516
aS'http://www.quanshuwang.com/book/0/149/4276667.html'
p517
aS'http://www.quanshuwang.com/book/0/149/35427.html'
p518
aS'http://www.quanshuwang.com/book/0/149/4570488.html'
p519
aS'http://www.quanshuwang.com/book/0/149/36347.html'
p520
aS'http://www.quanshuwang.com/book/0/149/35294.html'
p521
aS'http://www.quanshuwang.com/book/0/149/4646152.html'
p522
aS'http://www.quanshuwang.com/book/0/149/36084.html'
p523
aS'http://www.quanshuwang.com/book/0/149/4634040.html'
p524
aS'http://www.quanshuwang.com/book/0/149/4071793.html'
p525
aS'http://www.quanshuwang.com/book/0/149/6858341.html'
p526
aS'http://www.quanshuwang.com/book/0/149/5066271.html'
p527
aS'http://www.quanshuwang.com/book/0/149/35352.html'
p528
aS'http://www.quanshuwang.com/book/0/149/3747684.html'
p529
aS'http://www.quanshuwang.com/book/0/149/34423.html'
p530
aS'http://www.quanshuwang.com/book/0/149/4692804.html'
p531
aS'http://www.quanshuwang.com/book/0/149/4639765.html'
p532
aS'http://www.quanshuwang.com/book/0/149/3428456.html'
p533
aS'http://www.quanshuwang.com/book/0/149/35809.html'
p534
aS'http://www.quanshuwang.com/book/0/149/6251678.html'
p535
aS'http://www.quanshuwang.com/book/0/149/3747678.html'
p536
aS'http://www.quanshuwang.com/book/0/149/4443836.html'
p537
aS'http://www.quanshuwang.com/book/0/149/6550985.html'
p538
aS'http://www.quanshuwang.com/book/0/149/4929618.html'
p539
aS'http://www.quanshuwang.com/book/0/149/4265596.html'
p540
aS'http://www.quanshuwang.com/book/0/149/3747679.html'
p541
aS'http://www.quanshuwang.com/book/0/149/6768986.html'
p542
aS'http://www.quanshuwang.com/book/0/149/4944799.html'
p543
aS'http://www.quanshuwang.com/book/0/149/4485363.html'
p544
aS'http://www.quanshuwang.com/book/0/149/4087616.html'
p545
aS'http://www.quanshuwang.com/book/0/149/4515909.html'
p546
aS'http://www.quanshuwang.com/book/0/149/34391.html'
p547
aS'http://www.quanshuwang.com/book/0/149/6884244.html'
p548
aS'http://www.quanshuwang.com/book/0/149/9781948.html'
p549
aS'http://www.quanshuwang.com/book/0/149/4894628.html'
p550
aS'http://www.quanshuwang.com/book/0/149/6727574.html'
p551
aS'http://www.quanshuwang.com/book/0/149/4915309.html'
p552
aS'http://www.quanshuwang.com/book/0/149/4122347.html'
p553
aS'http://www.quanshuwang.com/book/0/149/7018124.html'
p554
aS'http://www.quanshuwang.com/book/0/149/3387007.html'
p555
aS'http://www.quanshuwang.com/book/0/149/9821285.html'
p556
aS'http://www.quanshuwang.com/book/0/149/34721.html'
p557
aS'http://www.quanshuwang.com/book/0/149/3315190.html'
p558
aS'http://www.quanshuwang.com/book/0/149/4708414.html'
p559
aS'http://www.quanshuwang.com/book/0/149/36362.html'
p560
aS'http://www.quanshuwang.com/book/0/149/4442580.html'
p561
aS'http://www.quanshuwang.com/book/0/149/9781967.html'
p562
aS'http://www.quanshuwang.com/book/0/149/4922311.html'
p563
aS'http://www.quanshuwang.com/book/0/149/36143.html'
p564
aS'http://www.quanshuwang.com/book/0/149/34772.html'
p565
aS'http://www.quanshuwang.com/book/0/149/4069132.html'
p566
aS'http://www.quanshuwang.com/book/0/149/4068659.html'
p567
aS'http://www.quanshuwang.com/book/0/149/36400.html'
p568
aS'http://www.quanshuwang.com/book/0/149/4327839.html'
p569
aS'http://www.quanshuwang.com/book/0/149/35264.html'
p570
aS'http://www.quanshuwang.com/book/0/149/9793929.html'
p571
aS'http://www.quanshuwang.com/book/0/149/6097621.html'
p572
aS'http://www.quanshuwang.com/book/0/149/3329700.html'
p573
aS'http://www.quanshuwang.com/book/0/149/4904164.html'
p574
aS'http://www.quanshuwang.com/book/0/149/35334.html'
p575
aS'http://www.quanshuwang.com/book/0/149/5141476.html'
p576
aS'http://www.quanshuwang.com/book/0/149/4931240.html'
p577
aS'http://www.quanshuwang.com/book/0/149/4944379.html'
p578
aS'http://www.quanshuwang.com/book/0/149/4646151.html'
p579
aS'http://www.quanshuwang.com/book/0/149/35847.html'
p580
aS'http://www.quanshuwang.com/book/0/149/4425481.html'
p581
aS'http://www.quanshuwang.com/book/0/149/4894636.html'
p582
aS'http://www.quanshuwang.com/book/0/149/35840.html'
p583
aS'http://www.quanshuwang.com/book/0/149/4831912.html'
p584
aS'http://www.quanshuwang.com/book/0/149/36122.html'
p585
aS'http://www.quanshuwang.com/book/0/149/4885448.html'
p586
aS'http://www.quanshuwang.com/book/0/149/4094674.html'
p587
aS'http://www.quanshuwang.com/book/0/149/3754082.html'
p588
aS'http://www.quanshuwang.com/book/0/149/34356.html'
p589
aS'http://www.quanshuwang.com/book/0/149/10181952.html'
p590
aS'http://www.quanshuwang.com/book/0/149/4258617.html'
p591
aS'http://www.quanshuwang.com/book/0/149/6453625.html'
p592
aS'http://www.quanshuwang.com/book/0/149/5043396.html'
p593
aS'http://www.quanshuwang.com/book/0/149/34616.html'
p594
aS'http://www.quanshuwang.com/book/0/149/35517.html'
p595
aS'http://www.quanshuwang.com/book/0/149/4088147.html'
p596
aS'http://www.quanshuwang.com/book/0/149/4422309.html'
p597
aS'http://www.quanshuwang.com/book/0/149/36240.html'
p598
aS'http://www.quanshuwang.com/book/0/149/36111.html'
p599
aS'http://www.quanshuwang.com/book/0/149/36260.html'
p600
aS'http://www.quanshuwang.com/book/0/149/34515.html'
p601
aS'http://www.quanshuwang.com/book/0/149/4869574.html'
p602
aS'http://www.quanshuwang.com/book/0/149/34629.html'
p603
aS'http://www.quanshuwang.com/book/0/149/4558178.html'
p604
aS'http://www.quanshuwang.com/book/0/149/4693071.html'
p605
aS'http://www.quanshuwang.com/book/0/149/3197687.html'
p606
aS'http://www.quanshuwang.com/book/0/149/4741873.html'
p607
aS'http://www.quanshuwang.com/book/0/149/6412689.html'
p608
aS'http://www.quanshuwang.com/book/0/149/10217174.html'
p609
aS'http://www.quanshuwang.com/book/0/149/34786.html'
p610
aS'http://www.quanshuwang.com/book/0/149/4364421.html'
p611
aS'http://www.quanshuwang.com/book/0/149/6351126.html'
p612
aS'http://www.quanshuwang.com/book/0/149/36248.html'
p613
aS'http://www.quanshuwang.com/book/0/149/4696507.html'
p614
aS'http://www.quanshuwang.com/book/0/149/4908458.html'
p615
aS'http://www.quanshuwang.com/book/0/149/9781960.html'
p616
aS'http://www.quanshuwang.com/book/0/149/4231647.html'
p617
aS'http://www.quanshuwang.com/book/0/149/36449.html'
p618
aS'http://www.quanshuwang.com/book/0/149/6098789.html'
p619
aS'http://www.quanshuwang.com/book/0/149/34939.html'
p620
aS'http://www.quanshuwang.com/book/0/149/4085347.html'
p621
aS'http://www.quanshuwang.com/book/0/149/5066308.html'
p622
aS'http://www.quanshuwang.com/book/0/149/4084452.html'
p623
aS'http://www.quanshuwang.com/book/0/149/6575917.html'
p624
aS'http://www.quanshuwang.com/book/0/149/4453942.html'
p625
atRp626
.