c__builtin__
set
p1
((lp2
S'http://www.quanshuwang.com/book/0/153/36512.html'
p3
aS'http://www.quanshuwang.com/book/0/153/38465.html'
p4
aS'http://www.quanshuwang.com/book/0/153/38233.html'
p5
aS'http://www.quanshuwang.com/book/0/153/34495.html'
p6
aS'http://www.quanshuwang.com/book/0/153/37694.html'
p7
aS'http://www.quanshuwang.com/book/0/153/38433.html'
p8
aS'http://www.quanshuwang.com/book/0/153/36807.html'
p9
aS'http://www.quanshuwang.com/book/0/153/36158.html'
p10
aS'http://www.quanshuwang.com/book/0/153/37234.html'
p11
aS'http://www.quanshuwang.com/book/0/153/35613.html'
p12
aS'http://www.quanshuwang.com/book/0/153/36741.html'
p13
aS'http://www.quanshuwang.com/book/0/153/36917.html'
p14
aS'http://www.quanshuwang.com/book/0/153/35791.html'
p15
aS'http://www.quanshuwang.com/book/0/153/38057.html'
p16
aS'http://www.quanshuwang.com/book/0/153/37723.html'
p17
aS'http://www.quanshuwang.com/book/0/153/37783.html'
p18
aS'http://www.quanshuwang.com/book/0/153/34911.html'
p19
aS'http://www.quanshuwang.com/book/0/153/35333.html'
p20
aS'http://www.quanshuwang.com/book/0/153/37695.html'
p21
aS'http://www.quanshuwang.com/book/0/153/36042.html'
p22
aS'http://www.quanshuwang.com/book/0/153/34564.html'
p23
aS'http://www.quanshuwang.com/book/0/153/38254.html'
p24
aS'http://www.quanshuwang.com/book/0/153/35762.html'
p25
aS'http://www.quanshuwang.com/book/0/153/38112.html'
p26
aS'http://www.quanshuwang.com/book/0/153/36417.html'
p27
aS'http://www.quanshuwang.com/book/0/153/36781.html'
p28
aS'http://www.quanshuwang.com/book/0/153/38025.html'
p29
aS'http://www.quanshuwang.com/book/0/153/35180.html'
p30
aS'http://www.quanshuwang.com/book/0/153/36308.html'
p31
aS'http://www.quanshuwang.com/book/0/153/37507.html'
p32
aS'http://www.quanshuwang.com/book/0/153/37771.html'
p33
aS'http://www.quanshuwang.com/book/0/153/38531.html'
p34
aS'http://www.quanshuwang.com/book/0/153/37551.html'
p35
aS'http://www.quanshuwang.com/book/0/153/37818.html'
p36
aS'http://www.quanshuwang.com/book/0/153/37084.html'
p37
aS'http://www.quanshuwang.com/book/0/153/36020.html'
p38
aS'http://www.quanshuwang.com/book/0/153/35597.html'
p39
aS'http://www.quanshuwang.com/book/0/153/37170.html'
p40
aS'http://www.quanshuwang.com/book/0/153/34994.html'
p41
aS'http://www.quanshuwang.com/book/0/153/37747.html'
p42
aS'http://www.quanshuwang.com/book/0/153/36399.html'
p43
aS'http://www.quanshuwang.com/book/0/153/38152.html'
p44
atRp45
.