c__builtin__
set
p1
((lp2
S'http://www.quanshuwang.com/book/0/210/56373.html'
p3
aS'http://www.quanshuwang.com/book/0/210/55276.html'
p4
aS'http://www.quanshuwang.com/book/0/210/55917.html'
p5
aS'http://www.quanshuwang.com/book/0/210/6593332.html'
p6
aS'http://www.quanshuwang.com/book/0/210/3319281.html'
p7
aS'http://www.quanshuwang.com/book/0/210/6715775.html'
p8
aS'http://www.quanshuwang.com/book/0/210/56440.html'
p9
aS'http://www.quanshuwang.com/book/0/210/55451.html'
p10
aS'http://www.quanshuwang.com/book/0/210/6715827.html'
p11
aS'http://www.quanshuwang.com/book/0/210/6715772.html'
p12
aS'http://www.quanshuwang.com/book/0/210/55555.html'
p13
aS'http://www.quanshuwang.com/book/0/210/6715784.html'
p14
aS'http://www.quanshuwang.com/book/0/210/6593393.html'
p15
aS'http://www.quanshuwang.com/book/0/210/55479.html'
p16
aS'http://www.quanshuwang.com/book/0/210/6593380.html'
p17
aS'http://www.quanshuwang.com/book/0/210/55672.html'
p18
aS'http://www.quanshuwang.com/book/0/210/56075.html'
p19
aS'http://www.quanshuwang.com/book/0/210/56169.html'
p20
aS'http://www.quanshuwang.com/book/0/210/55358.html'
p21
aS'http://www.quanshuwang.com/book/0/210/55786.html'
p22
aS'http://www.quanshuwang.com/book/0/210/55527.html'
p23
aS'http://www.quanshuwang.com/book/0/210/55688.html'
p24
aS'http://www.quanshuwang.com/book/0/210/55384.html'
p25
aS'http://www.quanshuwang.com/book/0/210/6715822.html'
p26
aS'http://www.quanshuwang.com/book/0/210/55299.html'
p27
aS'http://www.quanshuwang.com/book/0/210/56206.html'
p28
aS'http://www.quanshuwang.com/book/0/210/56165.html'
p29
aS'http://www.quanshuwang.com/book/0/210/56141.html'
p30
aS'http://www.quanshuwang.com/book/0/210/55887.html'
p31
aS'http://www.quanshuwang.com/book/0/210/55363.html'
p32
aS'http://www.quanshuwang.com/book/0/210/56320.html'
p33
aS'http://www.quanshuwang.com/book/0/210/56501.html'
p34
aS'http://www.quanshuwang.com/book/0/210/6715788.html'
p35
aS'http://www.quanshuwang.com/book/0/210/6715815.html'
p36
atRp37
.