c__builtin__
set
p1
((lp2
S'http://www.quanshuwang.com/book/1/1998/652292.html'
p3
aS'http://www.quanshuwang.com/book/1/1998/653286.html'
p4
aS'http://www.quanshuwang.com/book/1/1998/653207.html'
p5
aS'http://www.quanshuwang.com/book/1/1998/651872.html'
p6
aS'http://www.quanshuwang.com/book/1/1998/652630.html'
p7
aS'http://www.quanshuwang.com/book/1/1998/653511.html'
p8
aS'http://www.quanshuwang.com/book/1/1998/651821.html'
p9
aS'http://www.quanshuwang.com/book/1/1998/652319.html'
p10
aS'http://www.quanshuwang.com/book/1/1998/652177.html'
p11
aS'http://www.quanshuwang.com/book/1/1998/651666.html'
p12
aS'http://www.quanshuwang.com/book/1/1998/652792.html'
p13
aS'http://www.quanshuwang.com/book/1/1998/651985.html'
p14
aS'http://www.quanshuwang.com/book/1/1998/653266.html'
p15
aS'http://www.quanshuwang.com/book/1/1998/7000547.html'
p16
aS'http://www.quanshuwang.com/book/1/1998/652974.html'
p17
aS'http://www.quanshuwang.com/book/1/1998/652266.html'
p18
aS'http://www.quanshuwang.com/book/1/1998/652667.html'
p19
aS'http://www.quanshuwang.com/book/1/1998/652718.html'
p20
aS'http://www.quanshuwang.com/book/1/1998/653389.html'
p21
aS'http://www.quanshuwang.com/book/1/1998/651616.html'
p22
aS'http://www.quanshuwang.com/book/1/1998/651415.html'
p23
aS'http://www.quanshuwang.com/book/1/1998/652947.html'
p24
aS'http://www.quanshuwang.com/book/1/1998/651501.html'
p25
aS'http://www.quanshuwang.com/book/1/1998/653622.html'
p26
aS'http://www.quanshuwang.com/book/1/1998/651724.html'
p27
aS'http://www.quanshuwang.com/book/1/1998/652684.html'
p28
aS'http://www.quanshuwang.com/book/1/1998/652693.html'
p29
aS'http://www.quanshuwang.com/book/1/1998/651920.html'
p30
aS'http://www.quanshuwang.com/book/1/1998/653369.html'
p31
aS'http://www.quanshuwang.com/book/1/1998/651659.html'
p32
aS'http://www.quanshuwang.com/book/1/1998/652708.html'
p33
aS'http://www.quanshuwang.com/book/1/1998/652481.html'
p34
aS'http://www.quanshuwang.com/book/1/1998/653131.html'
p35
aS'http://www.quanshuwang.com/book/1/1998/651565.html'
p36
aS'http://www.quanshuwang.com/book/1/1998/652139.html'
p37
aS'http://www.quanshuwang.com/book/1/1998/652235.html'
p38
aS'http://www.quanshuwang.com/book/1/1998/651719.html'
p39
aS'http://www.quanshuwang.com/book/1/1998/651927.html'
p40
aS'http://www.quanshuwang.com/book/1/1998/652987.html'
p41
aS'http://www.quanshuwang.com/book/1/1998/653571.html'
p42
aS'http://www.quanshuwang.com/book/1/1998/653195.html'
p43
aS'http://www.quanshuwang.com/book/1/1998/653422.html'
p44
aS'http://www.quanshuwang.com/book/1/1998/651743.html'
p45
aS'http://www.quanshuwang.com/book/1/1998/652094.html'
p46
aS'http://www.quanshuwang.com/book/1/1998/652126.html'
p47
aS'http://www.quanshuwang.com/book/1/1998/653175.html'
p48
aS'http://www.quanshuwang.com/book/1/1998/651389.html'
p49
aS'http://www.quanshuwang.com/book/1/1998/652369.html'
p50
aS'http://www.quanshuwang.com/book/1/1998/653308.html'
p51
aS'http://www.quanshuwang.com/book/1/1998/651770.html'
p52
aS'http://www.quanshuwang.com/book/1/1998/651456.html'
p53
aS'http://www.quanshuwang.com/book/1/1998/651673.html'
p54
aS'http://www.quanshuwang.com/book/1/1998/652448.html'
p55
aS'http://www.quanshuwang.com/book/1/1998/651686.html'
p56
aS'http://www.quanshuwang.com/book/1/1998/652950.html'
p57
aS'http://www.quanshuwang.com/book/1/1998/652331.html'
p58
aS'http://www.quanshuwang.com/book/1/1998/652386.html'
p59
aS'http://www.quanshuwang.com/book/1/1998/652341.html'
p60
aS'http://www.quanshuwang.com/book/1/1998/653549.html'
p61
aS'http://www.quanshuwang.com/book/1/1998/651811.html'
p62
aS'http://www.quanshuwang.com/book/1/1998/651431.html'
p63
aS'http://www.quanshuwang.com/book/1/1998/651735.html'
p64
aS'http://www.quanshuwang.com/book/1/1998/651587.html'
p65
aS'http://www.quanshuwang.com/book/1/1998/651997.html'
p66
aS'http://www.quanshuwang.com/book/1/1998/652081.html'
p67
aS'http://www.quanshuwang.com/book/1/1998/652731.html'
p68
aS'http://www.quanshuwang.com/book/1/1998/651433.html'
p69
aS'http://www.quanshuwang.com/book/1/1998/653296.html'
p70
aS'http://www.quanshuwang.com/book/1/1998/651970.html'
p71
aS'http://www.quanshuwang.com/book/1/1998/651729.html'
p72
aS'http://www.quanshuwang.com/book/1/1998/651952.html'
p73
aS'http://www.quanshuwang.com/book/1/1998/652172.html'
p74
aS'http://www.quanshuwang.com/book/1/1998/653337.html'
p75
aS'http://www.quanshuwang.com/book/1/1998/652337.html'
p76
aS'http://www.quanshuwang.com/book/1/1998/652713.html'
p77
aS'http://www.quanshuwang.com/book/1/1998/651706.html'
p78
aS'http://www.quanshuwang.com/book/1/1998/653138.html'
p79
aS'http://www.quanshuwang.com/book/1/1998/651847.html'
p80
aS'http://www.quanshuwang.com/book/1/1998/652199.html'
p81
aS'http://www.quanshuwang.com/book/1/1998/652181.html'
p82
aS'http://www.quanshuwang.com/book/1/1998/653396.html'
p83
aS'http://www.quanshuwang.com/book/1/1998/651797.html'
p84
aS'http://www.quanshuwang.com/book/1/1998/653407.html'
p85
aS'http://www.quanshuwang.com/book/1/1998/653151.html'
p86
aS'http://www.quanshuwang.com/book/1/1998/653080.html'
p87
aS'http://www.quanshuwang.com/book/1/1998/651755.html'
p88
aS'http://www.quanshuwang.com/book/1/1998/653165.html'
p89
aS'http://www.quanshuwang.com/book/1/1998/652210.html'
p90
aS'http://www.quanshuwang.com/book/1/1998/652748.html'
p91
aS'http://www.quanshuwang.com/book/1/1998/652228.html'
p92
aS'http://www.quanshuwang.com/book/1/1998/651808.html'
p93
aS'http://www.quanshuwang.com/book/1/1998/652274.html'
p94
aS'http://www.quanshuwang.com/book/1/1998/653492.html'
p95
aS'http://www.quanshuwang.com/book/1/1998/652100.html'
p96
aS'http://www.quanshuwang.com/book/1/1998/653113.html'
p97
aS'http://www.quanshuwang.com/book/1/1998/651377.html'
p98
aS'http://www.quanshuwang.com/book/1/1998/651790.html'
p99
aS'http://www.quanshuwang.com/book/1/1998/652119.html'
p100
aS'http://www.quanshuwang.com/book/1/1998/652664.html'
p101
aS'http://www.quanshuwang.com/book/1/1998/652441.html'
p102
aS'http://www.quanshuwang.com/book/1/1998/652352.html'
p103
aS'http://www.quanshuwang.com/book/1/1998/653157.html'
p104
aS'http://www.quanshuwang.com/book/1/1998/651645.html'
p105
aS'http://www.quanshuwang.com/book/1/1998/652883.html'
p106
aS'http://www.quanshuwang.com/book/1/1998/653331.html'
p107
aS'http://www.quanshuwang.com/book/1/1998/652019.html'
p108
aS'http://www.quanshuwang.com/book/1/1998/653239.html'
p109
aS'http://www.quanshuwang.com/book/1/1998/652348.html'
p110
aS'http://www.quanshuwang.com/book/1/1998/652971.html'
p111
aS'http://www.quanshuwang.com/book/1/1998/652412.html'
p112
aS'http://www.quanshuwang.com/book/1/1998/651710.html'
p113
aS'http://www.quanshuwang.com/book/1/1998/652147.html'
p114
aS'http://www.quanshuwang.com/book/1/1998/651939.html'
p115
aS'http://www.quanshuwang.com/book/1/1998/651753.html'
p116
aS'http://www.quanshuwang.com/book/1/1998/652053.html'
p117
aS'http://www.quanshuwang.com/book/1/1998/651479.html'
p118
aS'http://www.quanshuwang.com/book/1/1998/653071.html'
p119
aS'http://www.quanshuwang.com/book/1/1998/653346.html'
p120
aS'http://www.quanshuwang.com/book/1/1998/652500.html'
p121
aS'http://www.quanshuwang.com/book/1/1998/651468.html'
p122
aS'http://www.quanshuwang.com/book/1/1998/653322.html'
p123
aS'http://www.quanshuwang.com/book/1/1998/652859.html'
p124
aS'http://www.quanshuwang.com/book/1/1998/651849.html'
p125
aS'http://www.quanshuwang.com/book/1/1998/652466.html'
p126
aS'http://www.quanshuwang.com/book/1/1998/652958.html'
p127
aS'http://www.quanshuwang.com/book/1/1998/652531.html'
p128
aS'http://www.quanshuwang.com/book/1/1998/652205.html'
p129
aS'http://www.quanshuwang.com/book/1/1998/653018.html'
p130
aS'http://www.quanshuwang.com/book/1/1998/652847.html'
p131
aS'http://www.quanshuwang.com/book/1/1998/651364.html'
p132
aS'http://www.quanshuwang.com/book/1/1998/651866.html'
p133
aS'http://www.quanshuwang.com/book/1/1998/651990.html'
p134
aS'http://www.quanshuwang.com/book/1/1998/651569.html'
p135
aS'http://www.quanshuwang.com/book/1/1998/651931.html'
p136
aS'http://www.quanshuwang.com/book/1/1998/652136.html'
p137
aS'http://www.quanshuwang.com/book/1/1998/652674.html'
p138
aS'http://www.quanshuwang.com/book/1/1998/652774.html'
p139
aS'http://www.quanshuwang.com/book/1/1998/651837.html'
p140
aS'http://www.quanshuwang.com/book/1/1998/651579.html'
p141
aS'http://www.quanshuwang.com/book/1/1998/653121.html'
p142
aS'http://www.quanshuwang.com/book/1/1998/653005.html'
p143
aS'http://www.quanshuwang.com/book/1/1998/652977.html'
p144
aS'http://www.quanshuwang.com/book/1/1998/652036.html'
p145
aS'http://www.quanshuwang.com/book/1/1998/653301.html'
p146
aS'http://www.quanshuwang.com/book/1/1998/651784.html'
p147
aS'http://www.quanshuwang.com/book/1/1998/652906.html'
p148
aS'http://www.quanshuwang.com/book/1/1998/651809.html'
p149
aS'http://www.quanshuwang.com/book/1/1998/652614.html'
p150
aS'http://www.quanshuwang.com/book/1/1998/653095.html'
p151
aS'http://www.quanshuwang.com/book/1/1998/653478.html'
p152
aS'http://www.quanshuwang.com/book/1/1998/651484.html'
p153
aS'http://www.quanshuwang.com/book/1/1998/653563.html'
p154
aS'http://www.quanshuwang.com/book/1/1998/652686.html'
p155
aS'http://www.quanshuwang.com/book/1/1998/652378.html'
p156
aS'http://www.quanshuwang.com/book/1/1998/652061.html'
p157
aS'http://www.quanshuwang.com/book/1/1998/651795.html'
p158
aS'http://www.quanshuwang.com/book/1/1998/651426.html'
p159
aS'http://www.quanshuwang.com/book/1/1998/652955.html'
p160
aS'http://www.quanshuwang.com/book/1/1998/653247.html'
p161
aS'http://www.quanshuwang.com/book/1/1998/653226.html'
p162
aS'http://www.quanshuwang.com/book/1/1998/653523.html'
p163
aS'http://www.quanshuwang.com/book/1/1998/651401.html'
p164
aS'http://www.quanshuwang.com/book/1/1998/652270.html'
p165
aS'http://www.quanshuwang.com/book/1/1998/652967.html'
p166
aS'http://www.quanshuwang.com/book/1/1998/652641.html'
p167
aS'http://www.quanshuwang.com/book/1/1998/652585.html'
p168
aS'http://www.quanshuwang.com/book/1/1998/652610.html'
p169
aS'http://www.quanshuwang.com/book/1/1998/652915.html'
p170
aS'http://www.quanshuwang.com/book/1/1998/652636.html'
p171
aS'http://www.quanshuwang.com/book/1/1998/651612.html'
p172
aS'http://www.quanshuwang.com/book/1/1998/653597.html'
p173
aS'http://www.quanshuwang.com/book/1/1998/652262.html'
p174
aS'http://www.quanshuwang.com/book/1/1998/651518.html'
p175
aS'http://www.quanshuwang.com/book/1/1998/651522.html'
p176
aS'http://www.quanshuwang.com/book/1/1998/653352.html'
p177
aS'http://www.quanshuwang.com/book/1/1998/653184.html'
p178
aS'http://www.quanshuwang.com/book/1/1998/651882.html'
p179
aS'http://www.quanshuwang.com/book/1/1998/652106.html'
p180
aS'http://www.quanshuwang.com/book/1/1998/651949.html'
p181
aS'http://www.quanshuwang.com/book/1/1998/651414.html'
p182
aS'http://www.quanshuwang.com/book/1/1998/653231.html'
p183
aS'http://www.quanshuwang.com/book/1/1998/651407.html'
p184
aS'http://www.quanshuwang.com/book/1/1998/651682.html'
p185
aS'http://www.quanshuwang.com/book/1/1998/652741.html'
p186
aS'http://www.quanshuwang.com/book/1/1998/652458.html'
p187
aS'http://www.quanshuwang.com/book/1/1998/652562.html'
p188
aS'http://www.quanshuwang.com/book/1/1998/651943.html'
p189
aS'http://www.quanshuwang.com/book/1/1998/653448.html'
p190
aS'http://www.quanshuwang.com/book/1/1998/652430.html'
p191
aS'http://www.quanshuwang.com/book/1/1998/653281.html'
p192
aS'http://www.quanshuwang.com/book/1/1998/652783.html'
p193
aS'http://www.quanshuwang.com/book/1/1998/653377.html'
p194
aS'http://www.quanshuwang.com/book/1/1998/652537.html'
p195
aS'http://www.quanshuwang.com/book/1/1998/652940.html'
p196
aS'http://www.quanshuwang.com/book/1/1998/652303.html'
p197
aS'http://www.quanshuwang.com/book/1/1998/653486.html'
p198
aS'http://www.quanshuwang.com/book/1/1998/653416.html'
p199
aS'http://www.quanshuwang.com/book/1/1998/652592.html'
p200
aS'http://www.quanshuwang.com/book/1/1998/651772.html'
p201
aS'http://www.quanshuwang.com/book/1/1998/651507.html'
p202
aS'http://www.quanshuwang.com/book/1/1998/652682.html'
p203
aS'http://www.quanshuwang.com/book/1/1998/653589.html'
p204
aS'http://www.quanshuwang.com/book/1/1998/652404.html'
p205
aS'http://www.quanshuwang.com/book/1/1998/652287.html'
p206
aS'http://www.quanshuwang.com/book/1/1998/652931.html'
p207
aS'http://www.quanshuwang.com/book/1/1998/651851.html'
p208
aS'http://www.quanshuwang.com/book/1/1998/653146.html'
p209
aS'http://www.quanshuwang.com/book/1/1998/652760.html'
p210
aS'http://www.quanshuwang.com/book/1/1998/653048.html'
p211
aS'http://www.quanshuwang.com/book/1/1998/652279.html'
p212
aS'http://www.quanshuwang.com/book/1/1998/651826.html'
p213
aS'http://www.quanshuwang.com/book/1/1998/652015.html'
p214
aS'http://www.quanshuwang.com/book/1/1998/652920.html'
p215
aS'http://www.quanshuwang.com/book/1/1998/652114.html'
p216
aS'http://www.quanshuwang.com/book/1/1998/653527.html'
p217
aS'http://www.quanshuwang.com/book/1/1998/651395.html'
p218
aS'http://www.quanshuwang.com/book/1/1998/651574.html'
p219
aS'http://www.quanshuwang.com/book/1/1998/652316.html'
p220
aS'http://www.quanshuwang.com/book/1/1998/652995.html'
p221
aS'http://www.quanshuwang.com/book/1/1998/652928.html'
p222
aS'http://www.quanshuwang.com/book/1/1998/652770.html'
p223
aS'http://www.quanshuwang.com/book/1/1998/652185.html'
p224
aS'http://www.quanshuwang.com/book/1/1998/652604.html'
p225
aS'http://www.quanshuwang.com/book/1/1998/652595.html'
p226
aS'http://www.quanshuwang.com/book/1/1998/651393.html'
p227
aS'http://www.quanshuwang.com/book/1/1998/653613.html'
p228
aS'http://www.quanshuwang.com/book/1/1998/651767.html'
p229
aS'http://www.quanshuwang.com/book/1/1998/652893.html'
p230
aS'http://www.quanshuwang.com/book/1/1998/652478.html'
p231
aS'http://www.quanshuwang.com/book/1/1998/653607.html'
p232
aS'http://www.quanshuwang.com/book/1/1998/651980.html'
p233
aS'http://www.quanshuwang.com/book/1/1998/653541.html'
p234
aS'http://www.quanshuwang.com/book/1/1998/651773.html'
p235
aS'http://www.quanshuwang.com/book/1/1998/651912.html'
p236
aS'http://www.quanshuwang.com/book/1/1998/652887.html'
p237
aS'http://www.quanshuwang.com/book/1/1998/652671.html'
p238
aS'http://www.quanshuwang.com/book/1/1998/651776.html'
p239
aS'http://www.quanshuwang.com/book/1/1998/651833.html'
p240
aS'http://www.quanshuwang.com/book/1/1998/652381.html'
p241
aS'http://www.quanshuwang.com/book/1/1998/652045.html'
p242
aS'http://www.quanshuwang.com/book/1/1998/653463.html'
p243
aS'http://www.quanshuwang.com/book/1/1998/652087.html'
p244
aS'http://www.quanshuwang.com/book/1/1998/652372.html'
p245
aS'http://www.quanshuwang.com/book/1/1998/652324.html'
p246
aS'http://www.quanshuwang.com/book/1/1998/652421.html'
p247
aS'http://www.quanshuwang.com/book/1/1998/651386.html'
p248
aS'http://www.quanshuwang.com/book/1/1998/653433.html'
p249
aS'http://www.quanshuwang.com/book/1/1998/651451.html'
p250
aS'http://www.quanshuwang.com/book/1/1998/651540.html'
p251
aS'http://www.quanshuwang.com/book/1/1998/653000.html'
p252
aS'http://www.quanshuwang.com/book/1/1998/651366.html'
p253
aS'http://www.quanshuwang.com/book/1/1998/653618.html'
p254
aS'http://www.quanshuwang.com/book/1/1998/652006.html'
p255
aS'http://www.quanshuwang.com/book/1/1998/652736.html'
p256
aS'http://www.quanshuwang.com/book/1/1998/651739.html'
p257
aS'http://www.quanshuwang.com/book/1/1998/651907.html'
p258
aS'http://www.quanshuwang.com/book/1/1998/653083.html'
p259
aS'http://www.quanshuwang.com/book/1/1998/652517.html'
p260
aS'http://www.quanshuwang.com/book/1/1998/651702.html'
p261
aS'http://www.quanshuwang.com/book/1/1998/652622.html'
p262
aS'http://www.quanshuwang.com/book/1/1998/652638.html'
p263
aS'http://www.quanshuwang.com/book/1/1998/651446.html'
p264
aS'http://www.quanshuwang.com/book/1/1998/652224.html'
p265
aS'http://www.quanshuwang.com/book/1/1998/651840.html'
p266
aS'http://www.quanshuwang.com/book/1/1998/651533.html'
p267
aS'http://www.quanshuwang.com/book/1/1998/652898.html'
p268
aS'http://www.quanshuwang.com/book/1/1998/653202.html'
p269
aS'http://www.quanshuwang.com/book/1/1998/652969.html'
p270
aS'http://www.quanshuwang.com/book/1/1998/651525.html'
p271
aS'http://www.quanshuwang.com/book/1/1998/652808.html'
p272
aS'http://www.quanshuwang.com/book/1/1998/653558.html'
p273
aS'http://www.quanshuwang.com/book/1/1998/652374.html'
p274
aS'http://www.quanshuwang.com/book/1/1998/652217.html'
p275
aS'http://www.quanshuwang.com/book/1/1998/652513.html'
p276
aS'http://www.quanshuwang.com/book/1/1998/652294.html'
p277
aS'http://www.quanshuwang.com/book/1/1998/651829.html'
p278
aS'http://www.quanshuwang.com/book/1/1998/652310.html'
p279
aS'http://www.quanshuwang.com/book/1/1998/652653.html'
p280
aS'http://www.quanshuwang.com/book/1/1998/652522.html'
p281
aS'http://www.quanshuwang.com/book/1/1998/653385.html'
p282
aS'http://www.quanshuwang.com/book/1/1998/652701.html'
p283
aS'http://www.quanshuwang.com/book/1/1998/652570.html'
p284
aS'http://www.quanshuwang.com/book/1/1998/653452.html'
p285
aS'http://www.quanshuwang.com/book/1/1998/652964.html'
p286
aS'http://www.quanshuwang.com/book/1/1998/653216.html'
p287
aS'http://www.quanshuwang.com/book/1/1998/653626.html'
p288
aS'http://www.quanshuwang.com/book/1/1998/653102.html'
p289
aS'http://www.quanshuwang.com/book/1/1998/652805.html'
p290
aS'http://www.quanshuwang.com/book/1/1998/653364.html'
p291
atRp292
.