c__builtin__
set
p1
((lp2
S'http://www.quanshuwang.com/book/0/182/45148.html'
p3
aS'http://www.quanshuwang.com/book/0/182/46151.html'
p4
aS'http://www.quanshuwang.com/book/0/182/45557.html'
p5
aS'http://www.quanshuwang.com/book/0/182/45487.html'
p6
aS'http://www.quanshuwang.com/book/0/182/46318.html'
p7
aS'http://www.quanshuwang.com/book/0/182/46556.html'
p8
aS'http://www.quanshuwang.com/book/0/182/44758.html'
p9
aS'http://www.quanshuwang.com/book/0/182/44362.html'
p10
aS'http://www.quanshuwang.com/book/0/182/46727.html'
p11
aS'http://www.quanshuwang.com/book/0/182/45550.html'
p12
aS'http://www.quanshuwang.com/book/0/182/46601.html'
p13
aS'http://www.quanshuwang.com/book/0/182/44569.html'
p14
aS'http://www.quanshuwang.com/book/0/182/44628.html'
p15
aS'http://www.quanshuwang.com/book/0/182/45284.html'
p16
aS'http://www.quanshuwang.com/book/0/182/44770.html'
p17
aS'http://www.quanshuwang.com/book/0/182/46596.html'
p18
aS'http://www.quanshuwang.com/book/0/182/44807.html'
p19
aS'http://www.quanshuwang.com/book/0/182/44257.html'
p20
aS'http://www.quanshuwang.com/book/0/182/44581.html'
p21
aS'http://www.quanshuwang.com/book/0/182/45699.html'
p22
aS'http://www.quanshuwang.com/book/0/182/45844.html'
p23
aS'http://www.quanshuwang.com/book/0/182/46401.html'
p24
aS'http://www.quanshuwang.com/book/0/182/45729.html'
p25
aS'http://www.quanshuwang.com/book/0/182/46749.html'
p26
aS'http://www.quanshuwang.com/book/0/182/45759.html'
p27
aS'http://www.quanshuwang.com/book/0/182/45614.html'
p28
aS'http://www.quanshuwang.com/book/0/182/45902.html'
p29
aS'http://www.quanshuwang.com/book/0/182/44928.html'
p30
aS'http://www.quanshuwang.com/book/0/182/45463.html'
p31
aS'http://www.quanshuwang.com/book/0/182/46395.html'
p32
aS'http://www.quanshuwang.com/book/0/182/46297.html'
p33
aS'http://www.quanshuwang.com/book/0/182/44429.html'
p34
aS'http://www.quanshuwang.com/book/0/182/44481.html'
p35
aS'http://www.quanshuwang.com/book/0/182/44560.html'
p36
aS'http://www.quanshuwang.com/book/0/182/46655.html'
p37
aS'http://www.quanshuwang.com/book/0/182/45641.html'
p38
aS'http://www.quanshuwang.com/book/0/182/46067.html'
p39
aS'http://www.quanshuwang.com/book/0/182/45000.html'
p40
aS'http://www.quanshuwang.com/book/0/182/46679.html'
p41
aS'http://www.quanshuwang.com/book/0/182/45497.html'
p42
aS'http://www.quanshuwang.com/book/0/182/46708.html'
p43
aS'http://www.quanshuwang.com/book/0/182/46619.html'
p44
aS'http://www.quanshuwang.com/book/0/182/46632.html'
p45
aS'http://www.quanshuwang.com/book/0/182/46694.html'
p46
aS'http://www.quanshuwang.com/book/0/182/44683.html'
p47
aS'http://www.quanshuwang.com/book/0/182/45629.html'
p48
aS'http://www.quanshuwang.com/book/0/182/46313.html'
p49
aS'http://www.quanshuwang.com/book/0/182/44828.html'
p50
aS'http://www.quanshuwang.com/book/0/182/45212.html'
p51
aS'http://www.quanshuwang.com/book/0/182/45037.html'
p52
aS'http://www.quanshuwang.com/book/0/182/45086.html'
p53
aS'http://www.quanshuwang.com/book/0/182/46541.html'
p54
aS'http://www.quanshuwang.com/book/0/182/45648.html'
p55
aS'http://www.quanshuwang.com/book/0/182/45261.html'
p56
aS'http://www.quanshuwang.com/book/0/182/46661.html'
p57
aS'http://www.quanshuwang.com/book/0/182/44668.html'
p58
aS'http://www.quanshuwang.com/book/0/182/45705.html'
p59
aS'http://www.quanshuwang.com/book/0/182/46489.html'
p60
aS'http://www.quanshuwang.com/book/0/182/45495.html'
p61
aS'http://www.quanshuwang.com/book/0/182/46504.html'
p62
aS'http://www.quanshuwang.com/book/0/182/45235.html'
p63
aS'http://www.quanshuwang.com/book/0/182/45342.html'
p64
aS'http://www.quanshuwang.com/book/0/182/46805.html'
p65
aS'http://www.quanshuwang.com/book/0/182/44640.html'
p66
aS'http://www.quanshuwang.com/book/0/182/46126.html'
p67
aS'http://www.quanshuwang.com/book/0/182/45838.html'
p68
aS'http://www.quanshuwang.com/book/0/182/44646.html'
p69
aS'http://www.quanshuwang.com/book/0/182/44985.html'
p70
aS'http://www.quanshuwang.com/book/0/182/46823.html'
p71
aS'http://www.quanshuwang.com/book/0/182/45694.html'
p72
aS'http://www.quanshuwang.com/book/0/182/45802.html'
p73
aS'http://www.quanshuwang.com/book/0/182/46250.html'
p74
aS'http://www.quanshuwang.com/book/0/182/46738.html'
p75
aS'http://www.quanshuwang.com/book/0/182/45051.html'
p76
aS'http://www.quanshuwang.com/book/0/182/45436.html'
p77
aS'http://www.quanshuwang.com/book/0/182/46545.html'
p78
aS'http://www.quanshuwang.com/book/0/182/46732.html'
p79
aS'http://www.quanshuwang.com/book/0/182/45232.html'
p80
aS'http://www.quanshuwang.com/book/0/182/44305.html'
p81
aS'http://www.quanshuwang.com/book/0/182/44714.html'
p82
aS'http://www.quanshuwang.com/book/0/182/46325.html'
p83
aS'http://www.quanshuwang.com/book/0/182/44512.html'
p84
aS'http://www.quanshuwang.com/book/0/182/46156.html'
p85
aS'http://www.quanshuwang.com/book/0/182/46422.html'
p86
aS'http://www.quanshuwang.com/book/0/182/45068.html'
p87
aS'http://www.quanshuwang.com/book/0/182/45579.html'
p88
aS'http://www.quanshuwang.com/book/0/182/45896.html'
p89
aS'http://www.quanshuwang.com/book/0/182/45381.html'
p90
aS'http://www.quanshuwang.com/book/0/182/44619.html'
p91
aS'http://www.quanshuwang.com/book/0/182/46189.html'
p92
aS'http://www.quanshuwang.com/book/0/182/45278.html'
p93
aS'http://www.quanshuwang.com/book/0/182/44487.html'
p94
aS'http://www.quanshuwang.com/book/0/182/45078.html'
p95
aS'http://www.quanshuwang.com/book/0/182/45714.html'
p96
aS'http://www.quanshuwang.com/book/0/182/46794.html'
p97
aS'http://www.quanshuwang.com/book/0/182/45566.html'
p98
aS'http://www.quanshuwang.com/book/0/182/44335.html'
p99
aS'http://www.quanshuwang.com/book/0/182/45618.html'
p100
aS'http://www.quanshuwang.com/book/0/182/45483.html'
p101
aS'http://www.quanshuwang.com/book/0/182/44817.html'
p102
aS'http://www.quanshuwang.com/book/0/182/45187.html'
p103
aS'http://www.quanshuwang.com/book/0/182/46210.html'
p104
aS'http://www.quanshuwang.com/book/0/182/44606.html'
p105
aS'http://www.quanshuwang.com/book/0/182/44657.html'
p106
aS'http://www.quanshuwang.com/book/0/182/44927.html'
p107
aS'http://www.quanshuwang.com/book/0/182/45892.html'
p108
aS'http://www.quanshuwang.com/book/0/182/44801.html'
p109
aS'http://www.quanshuwang.com/book/0/182/44273.html'
p110
aS'http://www.quanshuwang.com/book/0/182/44492.html'
p111
aS'http://www.quanshuwang.com/book/0/182/46535.html'
p112
aS'http://www.quanshuwang.com/book/0/182/45533.html'
p113
aS'http://www.quanshuwang.com/book/0/182/45819.html'
p114
aS'http://www.quanshuwang.com/book/0/182/46228.html'
p115
aS'http://www.quanshuwang.com/book/0/182/44839.html'
p116
aS'http://www.quanshuwang.com/book/0/182/14786552.html'
p117
aS'http://www.quanshuwang.com/book/0/182/46759.html'
p118
aS'http://www.quanshuwang.com/book/0/182/44323.html'
p119
aS'http://www.quanshuwang.com/book/0/182/44951.html'
p120
aS'http://www.quanshuwang.com/book/0/182/45288.html'
p121
aS'http://www.quanshuwang.com/book/0/182/44949.html'
p122
aS'http://www.quanshuwang.com/book/0/182/45886.html'
p123
aS'http://www.quanshuwang.com/book/0/182/44824.html'
p124
aS'http://www.quanshuwang.com/book/0/182/45525.html'
p125
aS'http://www.quanshuwang.com/book/0/182/46255.html'
p126
aS'http://www.quanshuwang.com/book/0/182/45509.html'
p127
aS'http://www.quanshuwang.com/book/0/182/44376.html'
p128
aS'http://www.quanshuwang.com/book/0/182/46779.html'
p129
aS'http://www.quanshuwang.com/book/0/182/45182.html'
p130
aS'http://www.quanshuwang.com/book/0/182/44301.html'
p131
aS'http://www.quanshuwang.com/book/0/182/45505.html'
p132
aS'http://www.quanshuwang.com/book/0/182/44882.html'
p133
aS'http://www.quanshuwang.com/book/0/182/45367.html'
p134
aS'http://www.quanshuwang.com/book/0/182/44855.html'
p135
aS'http://www.quanshuwang.com/book/0/182/46481.html'
p136
aS'http://www.quanshuwang.com/book/0/182/45161.html'
p137
aS'http://www.quanshuwang.com/book/0/182/46179.html'
p138
aS'http://www.quanshuwang.com/book/0/182/46240.html'
p139
aS'http://www.quanshuwang.com/book/0/182/44476.html'
p140
aS'http://www.quanshuwang.com/book/0/182/45042.html'
p141
aS'http://www.quanshuwang.com/book/0/182/45192.html'
p142
aS'http://www.quanshuwang.com/book/0/182/46754.html'
p143
aS'http://www.quanshuwang.com/book/0/182/44634.html'
p144
aS'http://www.quanshuwang.com/book/0/182/44554.html'
p145
aS'http://www.quanshuwang.com/book/0/182/46030.html'
p146
aS'http://www.quanshuwang.com/book/0/182/45110.html'
p147
aS'http://www.quanshuwang.com/book/0/182/44392.html'
p148
aS'http://www.quanshuwang.com/book/0/182/45683.html'
p149
aS'http://www.quanshuwang.com/book/0/182/46000.html'
p150
aS'http://www.quanshuwang.com/book/0/182/44278.html'
p151
aS'http://www.quanshuwang.com/book/0/182/45029.html'
p152
aS'http://www.quanshuwang.com/book/0/182/45739.html'
p153
aS'http://www.quanshuwang.com/book/0/182/44782.html'
p154
aS'http://www.quanshuwang.com/book/0/182/44346.html'
p155
aS'http://www.quanshuwang.com/book/0/182/46378.html'
p156
aS'http://www.quanshuwang.com/book/0/182/45423.html'
p157
aS'http://www.quanshuwang.com/book/0/182/46701.html'
p158
aS'http://www.quanshuwang.com/book/0/182/46768.html'
p159
aS'http://www.quanshuwang.com/book/0/182/46146.html'
p160
aS'http://www.quanshuwang.com/book/0/182/44507.html'
p161
aS'http://www.quanshuwang.com/book/0/182/45977.html'
p162
aS'http://www.quanshuwang.com/book/0/182/45536.html'
p163
aS'http://www.quanshuwang.com/book/0/182/46434.html'
p164
aS'http://www.quanshuwang.com/book/0/182/45443.html'
p165
aS'http://www.quanshuwang.com/book/0/182/45390.html'
p166
aS'http://www.quanshuwang.com/book/0/182/44436.html'
p167
aS'http://www.quanshuwang.com/book/0/182/45664.html'
p168
aS'http://www.quanshuwang.com/book/0/182/44862.html'
p169
aS'http://www.quanshuwang.com/book/0/182/44359.html'
p170
aS'http://www.quanshuwang.com/book/0/182/45456.html'
p171
aS'http://www.quanshuwang.com/book/0/182/45047.html'
p172
aS'http://www.quanshuwang.com/book/0/182/45767.html'
p173
aS'http://www.quanshuwang.com/book/0/182/45773.html'
p174
aS'http://www.quanshuwang.com/book/0/182/46354.html'
p175
aS'http://www.quanshuwang.com/book/0/182/46370.html'
p176
aS'http://www.quanshuwang.com/book/0/182/6999268.html'
p177
aS'http://www.quanshuwang.com/book/0/182/46440.html'
p178
aS'http://www.quanshuwang.com/book/0/182/46684.html'
p179
aS'http://www.quanshuwang.com/book/0/182/44544.html'
p180
aS'http://www.quanshuwang.com/book/0/182/46109.html'
p181
aS'http://www.quanshuwang.com/book/0/182/46139.html'
p182
aS'http://www.quanshuwang.com/book/0/182/46232.html'
p183
aS'http://www.quanshuwang.com/book/0/182/44317.html'
p184
aS'http://www.quanshuwang.com/book/0/182/45241.html'
p185
aS'http://www.quanshuwang.com/book/0/182/46784.html'
p186
aS'http://www.quanshuwang.com/book/0/182/46720.html'
p187
aS'http://www.quanshuwang.com/book/0/182/46529.html'
p188
aS'http://www.quanshuwang.com/book/0/182/45744.html'
p189
aS'http://www.quanshuwang.com/book/0/182/46219.html'
p190
aS'http://www.quanshuwang.com/book/0/182/46045.html'
p191
aS'http://www.quanshuwang.com/book/0/182/46576.html'
p192
aS'http://www.quanshuwang.com/book/0/182/45400.html'
p193
aS'http://www.quanshuwang.com/book/0/182/45721.html'
p194
aS'http://www.quanshuwang.com/book/0/182/46789.html'
p195
aS'http://www.quanshuwang.com/book/0/182/44694.html'
p196
aS'http://www.quanshuwang.com/book/0/182/44340.html'
p197
aS'http://www.quanshuwang.com/book/0/182/44974.html'
p198
aS'http://www.quanshuwang.com/book/0/182/44900.html'
p199
aS'http://www.quanshuwang.com/book/0/182/44940.html'
p200
aS'http://www.quanshuwang.com/book/0/182/44594.html'
p201
aS'http://www.quanshuwang.com/book/0/182/46083.html'
p202
aS'http://www.quanshuwang.com/book/0/182/45355.html'
p203
aS'http://www.quanshuwang.com/book/0/182/44404.html'
p204
aS'http://www.quanshuwang.com/book/0/182/44716.html'
p205
aS'http://www.quanshuwang.com/book/0/182/46499.html'
p206
aS'http://www.quanshuwang.com/book/0/182/46170.html'
p207
aS'http://www.quanshuwang.com/book/0/182/45021.html'
p208
aS'http://www.quanshuwang.com/book/0/182/44753.html'
p209
aS'http://www.quanshuwang.com/book/0/182/46854.html'
p210
aS'http://www.quanshuwang.com/book/0/182/44449.html'
p211
aS'http://www.quanshuwang.com/book/0/182/45346.html'
p212
aS'http://www.quanshuwang.com/book/0/182/44969.html'
p213
aS'http://www.quanshuwang.com/book/0/182/46086.html'
p214
aS'http://www.quanshuwang.com/book/0/182/44565.html'
p215
aS'http://www.quanshuwang.com/book/0/182/46470.html'
p216
aS'http://www.quanshuwang.com/book/0/182/46105.html'
p217
aS'http://www.quanshuwang.com/book/0/182/44474.html'
p218
aS'http://www.quanshuwang.com/book/0/182/45589.html'
p219
aS'http://www.quanshuwang.com/book/0/182/46289.html'
p220
aS'http://www.quanshuwang.com/book/0/182/45795.html'
p221
aS'http://www.quanshuwang.com/book/0/182/46428.html'
p222
aS'http://www.quanshuwang.com/book/0/182/44381.html'
p223
aS'http://www.quanshuwang.com/book/0/182/44538.html'
p224
aS'http://www.quanshuwang.com/book/0/182/44746.html'
p225
aS'http://www.quanshuwang.com/book/0/182/44734.html'
p226
aS'http://www.quanshuwang.com/book/0/182/44911.html'
p227
aS'http://www.quanshuwang.com/book/0/182/46362.html'
p228
aS'http://www.quanshuwang.com/book/0/182/45114.html'
p229
aS'http://www.quanshuwang.com/book/0/182/45071.html'
p230
aS'http://www.quanshuwang.com/book/0/182/46282.html'
p231
aS'http://www.quanshuwang.com/book/0/182/45337.html'
p232
aS'http://www.quanshuwang.com/book/0/182/45246.html'
p233
aS'http://www.quanshuwang.com/book/0/182/44265.html'
p234
aS'http://www.quanshuwang.com/book/0/182/45142.html'
p235
aS'http://www.quanshuwang.com/book/0/182/44896.html'
p236
aS'http://www.quanshuwang.com/book/0/182/46383.html'
p237
aS'http://www.quanshuwang.com/book/0/182/45167.html'
p238
aS'http://www.quanshuwang.com/book/0/182/46444.html'
p239
aS'http://www.quanshuwang.com/book/0/182/46264.html'
p240
aS'http://www.quanshuwang.com/book/0/182/46415.html'
p241
aS'http://www.quanshuwang.com/book/0/182/45410.html'
p242
aS'http://www.quanshuwang.com/book/0/182/45104.html'
p243
aS'http://www.quanshuwang.com/book/0/182/44425.html'
p244
aS'http://www.quanshuwang.com/book/0/182/44673.html'
p245
aS'http://www.quanshuwang.com/book/0/182/46743.html'
p246
aS'http://www.quanshuwang.com/book/0/182/44700.html'
p247
aS'http://www.quanshuwang.com/book/0/182/46058.html'
p248
aS'http://www.quanshuwang.com/book/0/182/45326.html'
p249
aS'http://www.quanshuwang.com/book/0/182/44624.html'
p250
aS'http://www.quanshuwang.com/book/0/182/44886.html'
p251
aS'http://www.quanshuwang.com/book/0/182/45394.html'
p252
aS'http://www.quanshuwang.com/book/0/182/44834.html'
p253
aS'http://www.quanshuwang.com/book/0/182/46550.html'
p254
aS'http://www.quanshuwang.com/book/0/182/44688.html'
p255
aS'http://www.quanshuwang.com/book/0/182/44914.html'
p256
aS'http://www.quanshuwang.com/book/0/182/46519.html'
p257
aS'http://www.quanshuwang.com/book/0/182/45314.html'
p258
aS'http://www.quanshuwang.com/book/0/182/45249.html'
p259
aS'http://www.quanshuwang.com/book/0/182/45635.html'
p260
aS'http://www.quanshuwang.com/book/0/182/46329.html'
p261
aS'http://www.quanshuwang.com/book/0/182/44399.html'
p262
aS'http://www.quanshuwang.com/book/0/182/45332.html'
p263
aS'http://www.quanshuwang.com/book/0/182/45005.html'
p264
aS'http://www.quanshuwang.com/book/0/182/44612.html'
p265
aS'http://www.quanshuwang.com/book/0/182/46817.html'
p266
aS'http://www.quanshuwang.com/book/0/182/44791.html'
p267
aS'http://www.quanshuwang.com/book/0/182/45584.html'
p268
aS'http://www.quanshuwang.com/book/0/182/46509.html'
p269
aS'http://www.quanshuwang.com/book/0/182/45623.html'
p270
aS'http://www.quanshuwang.com/book/0/182/44662.html'
p271
aS'http://www.quanshuwang.com/book/0/182/46294.html'
p272
aS'http://www.quanshuwang.com/book/0/182/44821.html'
p273
aS'http://www.quanshuwang.com/book/0/182/46668.html'
p274
aS'http://www.quanshuwang.com/book/0/182/46405.html'
p275
aS'http://www.quanshuwang.com/book/0/182/44372.html'
p276
aS'http://www.quanshuwang.com/book/0/182/46641.html'
p277
aS'http://www.quanshuwang.com/book/0/182/46689.html'
p278
aS'http://www.quanshuwang.com/book/0/182/44750.html'
p279
aS'http://www.quanshuwang.com/book/0/182/44575.html'
p280
aS'http://www.quanshuwang.com/book/0/182/45201.html'
p281
aS'http://www.quanshuwang.com/book/0/182/46835.html'
p282
aS'http://www.quanshuwang.com/book/0/182/44256.html'
p283
aS'http://www.quanshuwang.com/book/0/182/46449.html'
p284
aS'http://www.quanshuwang.com/book/0/182/46453.html'
p285
aS'http://www.quanshuwang.com/book/0/182/44348.html'
p286
aS'http://www.quanshuwang.com/book/0/182/46560.html'
p287
aS'http://www.quanshuwang.com/book/0/182/46651.html'
p288
aS'http://www.quanshuwang.com/book/0/182/46706.html'
p289
aS'http://www.quanshuwang.com/book/0/182/44787.html'
p290
aS'http://www.quanshuwang.com/book/0/182/44981.html'
p291
aS'http://www.quanshuwang.com/book/0/182/46627.html'
p292
aS'http://www.quanshuwang.com/book/0/182/46466.html'
p293
aS'http://www.quanshuwang.com/book/0/182/45255.html'
p294
aS'http://www.quanshuwang.com/book/0/182/45814.html'
p295
aS'http://www.quanshuwang.com/book/0/182/46052.html'
p296
aS'http://www.quanshuwang.com/book/0/182/45378.html'
p297
aS'http://www.quanshuwang.com/book/0/182/46849.html'
p298
aS'http://www.quanshuwang.com/book/0/182/45542.html'
p299
aS'http://www.quanshuwang.com/book/0/182/46005.html'
p300
aS'http://www.quanshuwang.com/book/0/182/45060.html'
p301
aS'http://www.quanshuwang.com/book/0/182/46715.html'
p302
aS'http://www.quanshuwang.com/book/0/182/46565.html'
p303
aS'http://www.quanshuwang.com/book/0/182/46225.html'
p304
aS'http://www.quanshuwang.com/book/0/182/44709.html'
p305
aS'http://www.quanshuwang.com/book/0/182/46162.html'
p306
aS'http://www.quanshuwang.com/book/0/182/45082.html'
p307
aS'http://www.quanshuwang.com/book/0/182/46773.html'
p308
aS'http://www.quanshuwang.com/book/0/182/45806.html'
p309
aS'http://www.quanshuwang.com/book/0/182/45826.html'
p310
aS'http://www.quanshuwang.com/book/0/182/46582.html'
p311
aS'http://www.quanshuwang.com/book/0/182/44993.html'
p312
aS'http://www.quanshuwang.com/book/0/182/46166.html'
p313
aS'http://www.quanshuwang.com/book/0/182/44796.html'
p314
aS'http://www.quanshuwang.com/book/0/182/45329.html'
p315
aS'http://www.quanshuwang.com/book/0/182/46590.html'
p316
aS'http://www.quanshuwang.com/book/0/182/46606.html'
p317
aS'http://www.quanshuwang.com/book/0/182/45064.html'
p318
aS'http://www.quanshuwang.com/book/0/182/45207.html'
p319
aS'http://www.quanshuwang.com/book/0/182/46515.html'
p320
aS'http://www.quanshuwang.com/book/0/182/45271.html'
p321
aS'http://www.quanshuwang.com/book/0/182/44679.html'
p322
aS'http://www.quanshuwang.com/book/0/182/44767.html'
p323
aS'http://www.quanshuwang.com/book/0/182/46175.html'
p324
aS'http://www.quanshuwang.com/book/0/182/46300.html'
p325
aS'http://www.quanshuwang.com/book/0/182/45466.html'
p326
aS'http://www.quanshuwang.com/book/0/182/45195.html'
p327
aS'http://www.quanshuwang.com/book/0/182/46100.html'
p328
aS'http://www.quanshuwang.com/book/0/182/46032.html'
p329
aS'http://www.quanshuwang.com/book/0/182/45318.html'
p330
aS'http://www.quanshuwang.com/book/0/182/46337.html'
p331
aS'http://www.quanshuwang.com/book/0/182/44873.html'
p332
aS'http://www.quanshuwang.com/book/0/182/46811.html'
p333
aS'http://www.quanshuwang.com/book/0/182/46828.html'
p334
aS'http://www.quanshuwang.com/book/0/182/46674.html'
p335
aS'http://www.quanshuwang.com/book/0/182/45914.html'
p336
aS'http://www.quanshuwang.com/book/0/182/44517.html'
p337
aS'http://www.quanshuwang.com/book/0/182/46245.html'
p338
aS'http://www.quanshuwang.com/book/0/182/45419.html'
p339
aS'http://www.quanshuwang.com/book/0/182/44860.html'
p340
aS'http://www.quanshuwang.com/book/0/182/46359.html'
p341
aS'http://www.quanshuwang.com/book/0/182/46348.html'
p342
aS'http://www.quanshuwang.com/book/0/182/45605.html'
p343
aS'http://www.quanshuwang.com/book/0/182/46616.html'
p344
aS'http://www.quanshuwang.com/book/0/182/44868.html'
p345
atRp346
.