c__builtin__
set
p1
((lp2
S'http://www.quanshuwang.com/book/0/165/41439.html'
p3
aS'http://www.quanshuwang.com/book/0/165/41488.html'
p4
aS'http://www.quanshuwang.com/book/0/165/42269.html'
p5
aS'http://www.quanshuwang.com/book/0/165/41667.html'
p6
aS'http://www.quanshuwang.com/book/0/165/42007.html'
p7
aS'http://www.quanshuwang.com/book/0/165/41111.html'
p8
aS'http://www.quanshuwang.com/book/0/165/40345.html'
p9
aS'http://www.quanshuwang.com/book/0/165/38915.html'
p10
aS'http://www.quanshuwang.com/book/0/165/40084.html'
p11
aS'http://www.quanshuwang.com/book/0/165/42394.html'
p12
aS'http://www.quanshuwang.com/book/0/165/40690.html'
p13
aS'http://www.quanshuwang.com/book/0/165/40707.html'
p14
aS'http://www.quanshuwang.com/book/0/165/41144.html'
p15
aS'http://www.quanshuwang.com/book/0/165/41659.html'
p16
aS'http://www.quanshuwang.com/book/0/165/40359.html'
p17
aS'http://www.quanshuwang.com/book/0/165/40725.html'
p18
aS'http://www.quanshuwang.com/book/0/165/42320.html'
p19
aS'http://www.quanshuwang.com/book/0/165/41967.html'
p20
aS'http://www.quanshuwang.com/book/0/165/40194.html'
p21
aS'http://www.quanshuwang.com/book/0/165/39326.html'
p22
aS'http://www.quanshuwang.com/book/0/165/39440.html'
p23
aS'http://www.quanshuwang.com/book/0/165/40729.html'
p24
aS'http://www.quanshuwang.com/book/0/165/42512.html'
p25
aS'http://www.quanshuwang.com/book/0/165/40581.html'
p26
aS'http://www.quanshuwang.com/book/0/165/42551.html'
p27
aS'http://www.quanshuwang.com/book/0/165/41797.html'
p28
aS'http://www.quanshuwang.com/book/0/165/40316.html'
p29
aS'http://www.quanshuwang.com/book/0/165/41241.html'
p30
aS'http://www.quanshuwang.com/book/0/165/39143.html'
p31
aS'http://www.quanshuwang.com/book/0/165/39492.html'
p32
aS'http://www.quanshuwang.com/book/0/165/40439.html'
p33
aS'http://www.quanshuwang.com/book/0/165/39021.html'
p34
aS'http://www.quanshuwang.com/book/0/165/39157.html'
p35
aS'http://www.quanshuwang.com/book/0/165/41927.html'
p36
aS'http://www.quanshuwang.com/book/0/165/41993.html'
p37
aS'http://www.quanshuwang.com/book/0/165/40301.html'
p38
aS'http://www.quanshuwang.com/book/0/165/41370.html'
p39
aS'http://www.quanshuwang.com/book/0/165/42147.html'
p40
aS'http://www.quanshuwang.com/book/0/165/42301.html'
p41
aS'http://www.quanshuwang.com/book/0/165/40572.html'
p42
aS'http://www.quanshuwang.com/book/0/165/42108.html'
p43
aS'http://www.quanshuwang.com/book/0/165/41391.html'
p44
aS'http://www.quanshuwang.com/book/0/165/41343.html'
p45
aS'http://www.quanshuwang.com/book/0/165/41623.html'
p46
aS'http://www.quanshuwang.com/book/0/165/42542.html'
p47
aS'http://www.quanshuwang.com/book/0/165/41264.html'
p48
aS'http://www.quanshuwang.com/book/0/165/41987.html'
p49
aS'http://www.quanshuwang.com/book/0/165/42491.html'
p50
aS'http://www.quanshuwang.com/book/0/165/42557.html'
p51
aS'http://www.quanshuwang.com/book/0/165/39870.html'
p52
aS'http://www.quanshuwang.com/book/0/165/39624.html'
p53
aS'http://www.quanshuwang.com/book/0/165/38934.html'
p54
aS'http://www.quanshuwang.com/book/0/165/41558.html'
p55
aS'http://www.quanshuwang.com/book/0/165/39365.html'
p56
aS'http://www.quanshuwang.com/book/0/165/38901.html'
p57
aS'http://www.quanshuwang.com/book/0/165/40545.html'
p58
aS'http://www.quanshuwang.com/book/0/165/40695.html'
p59
aS'http://www.quanshuwang.com/book/0/165/41932.html'
p60
aS'http://www.quanshuwang.com/book/0/165/39840.html'
p61
aS'http://www.quanshuwang.com/book/0/165/40450.html'
p62
aS'http://www.quanshuwang.com/book/0/165/41336.html'
p63
aS'http://www.quanshuwang.com/book/0/165/42429.html'
p64
aS'http://www.quanshuwang.com/book/0/165/39584.html'
p65
aS'http://www.quanshuwang.com/book/0/165/39984.html'
p66
aS'http://www.quanshuwang.com/book/0/165/38906.html'
p67
aS'http://www.quanshuwang.com/book/0/165/38776.html'
p68
aS'http://www.quanshuwang.com/book/0/165/42057.html'
p69
aS'http://www.quanshuwang.com/book/0/165/39398.html'
p70
aS'http://www.quanshuwang.com/book/0/165/41259.html'
p71
aS'http://www.quanshuwang.com/book/0/165/42499.html'
p72
aS'http://www.quanshuwang.com/book/0/165/40827.html'
p73
aS'http://www.quanshuwang.com/book/0/165/39955.html'
p74
aS'http://www.quanshuwang.com/book/0/165/39697.html'
p75
aS'http://www.quanshuwang.com/book/0/165/41395.html'
p76
aS'http://www.quanshuwang.com/book/0/165/42548.html'
p77
aS'http://www.quanshuwang.com/book/0/165/39118.html'
p78
aS'http://www.quanshuwang.com/book/0/165/42066.html'
p79
aS'http://www.quanshuwang.com/book/0/165/38832.html'
p80
aS'http://www.quanshuwang.com/book/0/165/42524.html'
p81
aS'http://www.quanshuwang.com/book/0/165/40783.html'
p82
aS'http://www.quanshuwang.com/book/0/165/41221.html'
p83
aS'http://www.quanshuwang.com/book/0/165/38994.html'
p84
aS'http://www.quanshuwang.com/book/0/165/41365.html'
p85
aS'http://www.quanshuwang.com/book/0/165/39966.html'
p86
aS'http://www.quanshuwang.com/book/0/165/42345.html'
p87
aS'http://www.quanshuwang.com/book/0/165/39883.html'
p88
aS'http://www.quanshuwang.com/book/0/165/39000.html'
p89
aS'http://www.quanshuwang.com/book/0/165/42264.html'
p90
aS'http://www.quanshuwang.com/book/0/165/39521.html'
p91
aS'http://www.quanshuwang.com/book/0/165/41843.html'
p92
aS'http://www.quanshuwang.com/book/0/165/41610.html'
p93
aS'http://www.quanshuwang.com/book/0/165/41195.html'
p94
aS'http://www.quanshuwang.com/book/0/165/38766.html'
p95
aS'http://www.quanshuwang.com/book/0/165/42324.html'
p96
aS'http://www.quanshuwang.com/book/0/165/40488.html'
p97
aS'http://www.quanshuwang.com/book/0/165/41466.html'
p98
aS'http://www.quanshuwang.com/book/0/165/40368.html'
p99
aS'http://www.quanshuwang.com/book/0/165/39105.html'
p100
aS'http://www.quanshuwang.com/book/0/165/41782.html'
p101
aS'http://www.quanshuwang.com/book/0/165/41231.html'
p102
aS'http://www.quanshuwang.com/book/0/165/39222.html'
p103
aS'http://www.quanshuwang.com/book/0/165/40980.html'
p104
aS'http://www.quanshuwang.com/book/0/165/41430.html'
p105
aS'http://www.quanshuwang.com/book/0/165/40886.html'
p106
aS'http://www.quanshuwang.com/book/0/165/41054.html'
p107
aS'http://www.quanshuwang.com/book/0/165/39033.html'
p108
aS'http://www.quanshuwang.com/book/0/165/40186.html'
p109
aS'http://www.quanshuwang.com/book/0/165/39578.html'
p110
aS'http://www.quanshuwang.com/book/0/165/39503.html'
p111
aS'http://www.quanshuwang.com/book/0/165/39864.html'
p112
aS'http://www.quanshuwang.com/book/0/165/41550.html'
p113
aS'http://www.quanshuwang.com/book/0/165/40493.html'
p114
aS'http://www.quanshuwang.com/book/0/165/40174.html'
p115
aS'http://www.quanshuwang.com/book/0/165/39371.html'
p116
aS'http://www.quanshuwang.com/book/0/165/39338.html'
p117
aS'http://www.quanshuwang.com/book/0/165/42519.html'
p118
aS'http://www.quanshuwang.com/book/0/165/39660.html'
p119
aS'http://www.quanshuwang.com/book/0/165/41156.html'
p120
aS'http://www.quanshuwang.com/book/0/165/39855.html'
p121
aS'http://www.quanshuwang.com/book/0/165/39736.html'
p122
aS'http://www.quanshuwang.com/book/0/165/40966.html'
p123
aS'http://www.quanshuwang.com/book/0/165/40924.html'
p124
aS'http://www.quanshuwang.com/book/0/165/39006.html'
p125
aS'http://www.quanshuwang.com/book/0/165/39516.html'
p126
aS'http://www.quanshuwang.com/book/0/165/39536.html'
p127
aS'http://www.quanshuwang.com/book/0/165/42260.html'
p128
aS'http://www.quanshuwang.com/book/0/165/41620.html'
p129
aS'http://www.quanshuwang.com/book/0/165/39048.html'
p130
aS'http://www.quanshuwang.com/book/0/165/41755.html'
p131
aS'http://www.quanshuwang.com/book/0/165/41041.html'
p132
aS'http://www.quanshuwang.com/book/0/165/41065.html'
p133
aS'http://www.quanshuwang.com/book/0/165/40898.html'
p134
aS'http://www.quanshuwang.com/book/0/165/40042.html'
p135
aS'http://www.quanshuwang.com/book/0/165/39687.html'
p136
aS'http://www.quanshuwang.com/book/0/165/38759.html'
p137
aS'http://www.quanshuwang.com/book/0/165/39944.html'
p138
aS'http://www.quanshuwang.com/book/0/165/41937.html'
p139
aS'http://www.quanshuwang.com/book/0/165/39209.html'
p140
aS'http://www.quanshuwang.com/book/0/165/40002.html'
p141
aS'http://www.quanshuwang.com/book/0/165/40823.html'
p142
aS'http://www.quanshuwang.com/book/0/165/39784.html'
p143
aS'http://www.quanshuwang.com/book/0/165/39064.html'
p144
aS'http://www.quanshuwang.com/book/0/165/41692.html'
p145
aS'http://www.quanshuwang.com/book/0/165/38947.html'
p146
aS'http://www.quanshuwang.com/book/0/165/41753.html'
p147
aS'http://www.quanshuwang.com/book/0/165/40559.html'
p148
aS'http://www.quanshuwang.com/book/0/165/39232.html'
p149
aS'http://www.quanshuwang.com/book/0/165/40836.html'
p150
aS'http://www.quanshuwang.com/book/0/165/41399.html'
p151
aS'http://www.quanshuwang.com/book/0/165/39718.html'
p152
aS'http://www.quanshuwang.com/book/0/165/39722.html'
p153
aS'http://www.quanshuwang.com/book/0/165/39794.html'
p154
aS'http://www.quanshuwang.com/book/0/165/39111.html'
p155
aS'http://www.quanshuwang.com/book/0/165/42130.html'
p156
aS'http://www.quanshuwang.com/book/0/165/40157.html'
p157
aS'http://www.quanshuwang.com/book/0/165/39915.html'
p158
aS'http://www.quanshuwang.com/book/0/165/41849.html'
p159
aS'http://www.quanshuwang.com/book/0/165/42508.html'
p160
aS'http://www.quanshuwang.com/book/0/165/40680.html'
p161
aS'http://www.quanshuwang.com/book/0/165/40114.html'
p162
aS'http://www.quanshuwang.com/book/0/165/41455.html'
p163
aS'http://www.quanshuwang.com/book/0/165/40865.html'
p164
aS'http://www.quanshuwang.com/book/0/165/40239.html'
p165
aS'http://www.quanshuwang.com/book/0/165/39387.html'
p166
aS'http://www.quanshuwang.com/book/0/165/40956.html'
p167
aS'http://www.quanshuwang.com/book/0/165/39164.html'
p168
aS'http://www.quanshuwang.com/book/0/165/42595.html'
p169
aS'http://www.quanshuwang.com/book/0/165/40517.html'
p170
aS'http://www.quanshuwang.com/book/0/165/41080.html'
p171
aS'http://www.quanshuwang.com/book/0/165/39628.html'
p172
aS'http://www.quanshuwang.com/book/0/165/40339.html'
p173
aS'http://www.quanshuwang.com/book/0/165/39859.html'
p174
aS'http://www.quanshuwang.com/book/0/165/39430.html'
p175
aS'http://www.quanshuwang.com/book/0/165/41462.html'
p176
aS'http://www.quanshuwang.com/book/0/165/39977.html'
p177
aS'http://www.quanshuwang.com/book/0/165/39499.html'
p178
aS'http://www.quanshuwang.com/book/0/165/42469.html'
p179
aS'http://www.quanshuwang.com/book/0/165/39529.html'
p180
aS'http://www.quanshuwang.com/book/0/165/41696.html'
p181
aS'http://www.quanshuwang.com/book/0/165/39069.html'
p182
aS'http://www.quanshuwang.com/book/0/165/40986.html'
p183
aS'http://www.quanshuwang.com/book/0/165/40998.html'
p184
aS'http://www.quanshuwang.com/book/0/165/42060.html'
p185
aS'http://www.quanshuwang.com/book/0/165/39348.html'
p186
aS'http://www.quanshuwang.com/book/0/165/39305.html'
p187
aS'http://www.quanshuwang.com/book/0/165/41886.html'
p188
aS'http://www.quanshuwang.com/book/0/165/39057.html'
p189
aS'http://www.quanshuwang.com/book/0/165/41226.html'
p190
aS'http://www.quanshuwang.com/book/0/165/40552.html'
p191
aS'http://www.quanshuwang.com/book/0/165/39682.html'
p192
aS'http://www.quanshuwang.com/book/0/165/40500.html'
p193
aS'http://www.quanshuwang.com/book/0/165/39909.html'
p194
aS'http://www.quanshuwang.com/book/0/165/42460.html'
p195
aS'http://www.quanshuwang.com/book/0/165/41168.html'
p196
aS'http://www.quanshuwang.com/book/0/165/42116.html'
p197
aS'http://www.quanshuwang.com/book/0/165/40420.html'
p198
aS'http://www.quanshuwang.com/book/0/165/38864.html'
p199
aS'http://www.quanshuwang.com/book/0/165/40907.html'
p200
aS'http://www.quanshuwang.com/book/0/165/42305.html'
p201
aS'http://www.quanshuwang.com/book/0/165/41448.html'
p202
aS'http://www.quanshuwang.com/book/0/165/41472.html'
p203
aS'http://www.quanshuwang.com/book/0/165/41913.html'
p204
aS'http://www.quanshuwang.com/book/0/165/40108.html'
p205
aS'http://www.quanshuwang.com/book/0/165/41025.html'
p206
aS'http://www.quanshuwang.com/book/0/165/38927.html'
p207
aS'http://www.quanshuwang.com/book/0/165/39359.html'
p208
aS'http://www.quanshuwang.com/book/0/165/39391.html'
p209
aS'http://www.quanshuwang.com/book/0/165/40255.html'
p210
aS'http://www.quanshuwang.com/book/0/165/41862.html'
p211
aS'http://www.quanshuwang.com/book/0/165/42249.html'
p212
aS'http://www.quanshuwang.com/book/0/165/41350.html'
p213
aS'http://www.quanshuwang.com/book/0/165/39452.html'
p214
aS'http://www.quanshuwang.com/book/0/165/39975.html'
p215
aS'http://www.quanshuwang.com/book/0/165/41036.html'
p216
aS'http://www.quanshuwang.com/book/0/165/39422.html'
p217
aS'http://www.quanshuwang.com/book/0/165/42537.html'
p218
aS'http://www.quanshuwang.com/book/0/165/38859.html'
p219
aS'http://www.quanshuwang.com/book/0/165/38801.html'
p220
aS'http://www.quanshuwang.com/book/0/165/38949.html'
p221
aS'http://www.quanshuwang.com/book/0/165/40008.html'
p222
aS'http://www.quanshuwang.com/book/0/165/38755.html'
p223
aS'http://www.quanshuwang.com/book/0/165/42238.html'
p224
aS'http://www.quanshuwang.com/book/0/165/39511.html'
p225
aS'http://www.quanshuwang.com/book/0/165/40675.html'
p226
aS'http://www.quanshuwang.com/book/0/165/40072.html'
p227
aS'http://www.quanshuwang.com/book/0/165/41604.html'
p228
aS'http://www.quanshuwang.com/book/0/165/40861.html'
p229
aS'http://www.quanshuwang.com/book/0/165/41531.html'
p230
aS'http://www.quanshuwang.com/book/0/165/40873.html'
p231
aS'http://www.quanshuwang.com/book/0/165/42177.html'
p232
aS'http://www.quanshuwang.com/book/0/165/42327.html'
p233
aS'http://www.quanshuwang.com/book/0/165/41637.html'
p234
aS'http://www.quanshuwang.com/book/0/165/39887.html'
p235
aS'http://www.quanshuwang.com/book/0/165/42420.html'
p236
aS'http://www.quanshuwang.com/book/0/165/41643.html'
p237
aS'http://www.quanshuwang.com/book/0/165/40714.html'
p238
aS'http://www.quanshuwang.com/book/0/165/40372.html'
p239
aS'http://www.quanshuwang.com/book/0/165/42576.html'
p240
aS'http://www.quanshuwang.com/book/0/165/41787.html'
p241
aS'http://www.quanshuwang.com/book/0/165/41599.html'
p242
aS'http://www.quanshuwang.com/book/0/165/38817.html'
p243
aS'http://www.quanshuwang.com/book/0/165/39572.html'
p244
aS'http://www.quanshuwang.com/book/0/165/39747.html'
p245
aS'http://www.quanshuwang.com/book/0/165/41539.html'
p246
aS'http://www.quanshuwang.com/book/0/165/41252.html'
p247
aS'http://www.quanshuwang.com/book/0/165/38844.html'
p248
aS'http://www.quanshuwang.com/book/0/165/39332.html'
p249
aS'http://www.quanshuwang.com/book/0/165/41958.html'
p250
aS'http://www.quanshuwang.com/book/0/165/38924.html'
p251
aS'http://www.quanshuwang.com/book/0/165/39456.html'
p252
aS'http://www.quanshuwang.com/book/0/165/39776.html'
p253
aS'http://www.quanshuwang.com/book/0/165/40120.html'
p254
aS'http://www.quanshuwang.com/book/0/165/40950.html'
p255
aS'http://www.quanshuwang.com/book/0/165/41773.html'
p256
aS'http://www.quanshuwang.com/book/0/165/40466.html'
p257
aS'http://www.quanshuwang.com/book/0/165/42316.html'
p258
aS'http://www.quanshuwang.com/book/0/165/42071.html'
p259
aS'http://www.quanshuwang.com/book/0/165/41293.html'
p260
aS'http://www.quanshuwang.com/book/0/165/39376.html'
p261
aS'http://www.quanshuwang.com/book/0/165/41945.html'
p262
aS'http://www.quanshuwang.com/book/0/165/39846.html'
p263
aS'http://www.quanshuwang.com/book/0/165/42561.html'
p264
aS'http://www.quanshuwang.com/book/0/165/39825.html'
p265
aS'http://www.quanshuwang.com/book/0/165/41200.html'
p266
aS'http://www.quanshuwang.com/book/0/165/42103.html'
p267
aS'http://www.quanshuwang.com/book/0/165/39380.html'
p268
aS'http://www.quanshuwang.com/book/0/165/42163.html'
p269
aS'http://www.quanshuwang.com/book/0/165/38771.html'
p270
aS'http://www.quanshuwang.com/book/0/165/40701.html'
p271
aS'http://www.quanshuwang.com/book/0/165/41981.html'
p272
aS'http://www.quanshuwang.com/book/0/165/41362.html'
p273
aS'http://www.quanshuwang.com/book/0/165/41950.html'
p274
aS'http://www.quanshuwang.com/book/0/165/38852.html'
p275
aS'http://www.quanshuwang.com/book/0/165/39287.html'
p276
aS'http://www.quanshuwang.com/book/0/165/40234.html'
p277
aS'http://www.quanshuwang.com/book/0/165/38892.html'
p278
aS'http://www.quanshuwang.com/book/0/165/39149.html'
p279
aS'http://www.quanshuwang.com/book/0/165/40577.html'
p280
aS'http://www.quanshuwang.com/book/0/165/39248.html'
p281
aS'http://www.quanshuwang.com/book/0/165/41594.html'
p282
aS'http://www.quanshuwang.com/book/0/165/42356.html'
p283
aS'http://www.quanshuwang.com/book/0/165/39242.html'
p284
aS'http://www.quanshuwang.com/book/0/165/39293.html'
p285
aS'http://www.quanshuwang.com/book/0/165/42153.html'
p286
aS'http://www.quanshuwang.com/book/0/165/41280.html'
p287
aS'http://www.quanshuwang.com/book/0/165/42452.html'
p288
aS'http://www.quanshuwang.com/book/0/165/39309.html'
p289
aS'http://www.quanshuwang.com/book/0/165/42157.html'
p290
aS'http://www.quanshuwang.com/book/0/165/41727.html'
p291
aS'http://www.quanshuwang.com/book/0/165/42125.html'
p292
aS'http://www.quanshuwang.com/book/0/165/39893.html'
p293
aS'http://www.quanshuwang.com/book/0/165/40428.html'
p294
aS'http://www.quanshuwang.com/book/0/165/42540.html'
p295
aS'http://www.quanshuwang.com/book/0/165/41881.html'
p296
aS'http://www.quanshuwang.com/book/0/165/40484.html'
p297
aS'http://www.quanshuwang.com/book/0/165/42386.html'
p298
aS'http://www.quanshuwang.com/book/0/165/42398.html'
p299
aS'http://www.quanshuwang.com/book/0/165/42465.html'
p300
aS'http://www.quanshuwang.com/book/0/165/42522.html'
p301
aS'http://www.quanshuwang.com/book/0/165/39267.html'
p302
aS'http://www.quanshuwang.com/book/0/165/42135.html'
p303
aS'http://www.quanshuwang.com/book/0/165/41117.html'
p304
aS'http://www.quanshuwang.com/book/0/165/41810.html'
p305
aS'http://www.quanshuwang.com/book/0/165/5164548.html'
p306
aS'http://www.quanshuwang.com/book/0/165/39229.html'
p307
aS'http://www.quanshuwang.com/book/0/165/41975.html'
p308
aS'http://www.quanshuwang.com/book/0/165/38991.html'
p309
aS'http://www.quanshuwang.com/book/0/165/38794.html'
p310
aS'http://www.quanshuwang.com/book/0/165/42376.html'
p311
aS'http://www.quanshuwang.com/book/0/165/41477.html'
p312
aS'http://www.quanshuwang.com/book/0/165/38805.html'
p313
aS'http://www.quanshuwang.com/book/0/165/38970.html'
p314
aS'http://www.quanshuwang.com/book/0/165/39152.html'
p315
aS'http://www.quanshuwang.com/book/0/165/39409.html'
p316
aS'http://www.quanshuwang.com/book/0/165/38722.html'
p317
aS'http://www.quanshuwang.com/book/0/165/41614.html'
p318
aS'http://www.quanshuwang.com/book/0/165/42437.html'
p319
aS'http://www.quanshuwang.com/book/0/165/40473.html'
p320
aS'http://www.quanshuwang.com/book/0/165/42228.html'
p321
aS'http://www.quanshuwang.com/book/0/165/39054.html'
p322
aS'http://www.quanshuwang.com/book/0/165/41906.html'
p323
aS'http://www.quanshuwang.com/book/0/165/40028.html'
p324
aS'http://www.quanshuwang.com/book/0/165/40569.html'
p325
aS'http://www.quanshuwang.com/book/0/165/39179.html'
p326
aS'http://www.quanshuwang.com/book/0/165/42039.html'
p327
aS'http://www.quanshuwang.com/book/0/165/40189.html'
p328
aS'http://www.quanshuwang.com/book/0/165/41896.html'
p329
aS'http://www.quanshuwang.com/book/0/165/39077.html'
p330
aS'http://www.quanshuwang.com/book/0/165/42487.html'
p331
aS'http://www.quanshuwang.com/book/0/165/39195.html'
p332
aS'http://www.quanshuwang.com/book/0/165/39200.html'
p333
aS'http://www.quanshuwang.com/book/0/165/40207.html'
p334
aS'http://www.quanshuwang.com/book/0/165/41832.html'
p335
aS'http://www.quanshuwang.com/book/0/165/41049.html'
p336
aS'http://www.quanshuwang.com/book/0/165/40478.html'
p337
aS'http://www.quanshuwang.com/book/0/165/41062.html'
p338
aS'http://www.quanshuwang.com/book/0/165/42335.html'
p339
aS'http://www.quanshuwang.com/book/0/165/41501.html'
p340
aS'http://www.quanshuwang.com/book/0/165/40248.html'
p341
aS'http://www.quanshuwang.com/book/0/165/40529.html'
p342
aS'http://www.quanshuwang.com/book/0/165/39469.html'
p343
aS'http://www.quanshuwang.com/book/0/165/40007.html'
p344
aS'http://www.quanshuwang.com/book/0/165/41357.html'
p345
aS'http://www.quanshuwang.com/book/0/165/40086.html'
p346
aS'http://www.quanshuwang.com/book/0/165/42477.html'
p347
aS'http://www.quanshuwang.com/book/0/165/39186.html'
p348
aS'http://www.quanshuwang.com/book/0/165/40327.html'
p349
aS'http://www.quanshuwang.com/book/0/165/39740.html'
p350
aS'http://www.quanshuwang.com/book/0/165/40049.html'
p351
aS'http://www.quanshuwang.com/book/0/165/41763.html'
p352
aS'http://www.quanshuwang.com/book/0/165/41011.html'
p353
aS'http://www.quanshuwang.com/book/0/165/41778.html'
p354
aS'http://www.quanshuwang.com/book/0/165/39907.html'
p355
aS'http://www.quanshuwang.com/book/0/165/42079.html'
p356
aS'http://www.quanshuwang.com/book/0/165/39476.html'
p357
aS'http://www.quanshuwang.com/book/0/165/42439.html'
p358
aS'http://www.quanshuwang.com/book/0/165/39773.html'
p359
aS'http://www.quanshuwang.com/book/0/165/41331.html'
p360
aS'http://www.quanshuwang.com/book/0/165/42515.html'
p361
aS'http://www.quanshuwang.com/book/0/165/40322.html'
p362
aS'http://www.quanshuwang.com/book/0/165/40016.html'
p363
aS'http://www.quanshuwang.com/book/0/165/41318.html'
p364
aS'http://www.quanshuwang.com/book/0/165/39751.html'
p365
aS'http://www.quanshuwang.com/book/0/165/39769.html'
p366
aS'http://www.quanshuwang.com/book/0/165/39486.html'
p367
aS'http://www.quanshuwang.com/book/0/165/40104.html'
p368
aS'http://www.quanshuwang.com/book/0/165/42368.html'
p369
aS'http://www.quanshuwang.com/book/0/165/39617.html'
p370
aS'http://www.quanshuwang.com/book/0/165/39725.html'
p371
aS'http://www.quanshuwang.com/book/0/165/39735.html'
p372
aS'http://www.quanshuwang.com/book/0/165/39833.html'
p373
aS'http://www.quanshuwang.com/book/0/165/40377.html'
p374
aS'http://www.quanshuwang.com/book/0/165/39589.html'
p375
aS'http://www.quanshuwang.com/book/0/165/38741.html'
p376
aS'http://www.quanshuwang.com/book/0/165/42495.html'
p377
aS'http://www.quanshuwang.com/book/0/165/39780.html'
p378
aS'http://www.quanshuwang.com/book/0/165/41092.html'
p379
aS'http://www.quanshuwang.com/book/0/165/42528.html'
p380
aS'http://www.quanshuwang.com/book/0/165/39876.html'
p381
aS'http://www.quanshuwang.com/book/0/165/39404.html'
p382
aS'http://www.quanshuwang.com/book/0/165/40389.html'
p383
aS'http://www.quanshuwang.com/book/0/165/41071.html'
p384
aS'http://www.quanshuwang.com/book/0/165/39643.html'
p385
aS'http://www.quanshuwang.com/book/0/165/39744.html'
p386
aS'http://www.quanshuwang.com/book/0/165/39212.html'
p387
aS'http://www.quanshuwang.com/book/0/165/39606.html'
p388
aS'http://www.quanshuwang.com/book/0/165/38783.html'
p389
aS'http://www.quanshuwang.com/book/0/165/41236.html'
p390
aS'http://www.quanshuwang.com/book/0/165/41018.html'
p391
aS'http://www.quanshuwang.com/book/0/165/41566.html'
p392
aS'http://www.quanshuwang.com/book/0/165/42341.html'
p393
aS'http://www.quanshuwang.com/book/0/165/40684.html'
p394
aS'http://www.quanshuwang.com/book/0/165/39299.html'
p395
aS'http://www.quanshuwang.com/book/0/165/39927.html'
p396
aS'http://www.quanshuwang.com/book/0/165/40892.html'
p397
aS'http://www.quanshuwang.com/book/0/165/40260.html'
p398
aS'http://www.quanshuwang.com/book/0/165/41186.html'
p399
aS'http://www.quanshuwang.com/book/0/165/39011.html'
p400
aS'http://www.quanshuwang.com/book/0/165/40931.html'
p401
aS'http://www.quanshuwang.com/book/0/165/40802.html'
p402
aS'http://www.quanshuwang.com/book/0/165/42014.html'
p403
aS'http://www.quanshuwang.com/book/0/165/39245.html'
p404
aS'http://www.quanshuwang.com/book/0/165/42120.html'
p405
aS'http://www.quanshuwang.com/book/0/165/39101.html'
p406
aS'http://www.quanshuwang.com/book/0/165/39674.html'
p407
aS'http://www.quanshuwang.com/book/0/165/39961.html'
p408
aS'http://www.quanshuwang.com/book/0/165/38810.html'
p409
aS'http://www.quanshuwang.com/book/0/165/40962.html'
p410
atRp411
.